ARM GAS  /tmp/cc04WtHU.s 			page 1


   1              		.cpu cortex-m3
   2              		.eabi_attribute 20, 1
   3              		.eabi_attribute 21, 1
   4              		.eabi_attribute 23, 3
   5              		.eabi_attribute 24, 1
   6              		.eabi_attribute 25, 1
   7              		.eabi_attribute 26, 1
   8              		.eabi_attribute 30, 6
   9              		.eabi_attribute 34, 1
  10              		.eabi_attribute 18, 4
  11              		.file	"bshal_delay.c"
  12              		.text
  13              	.Ltext0:
  14              		.cfi_sections	.debug_frame
  15              		.section	.text.delay_cycles_asm,"ax",%progbits
  16              		.align	1
  17              		.global	delay_cycles_asm
  18              		.arch armv7-m
  19              		.syntax unified
  20              		.thumb
  21              		.thumb_func
  22              		.fpu softvfp
  24              	delay_cycles_asm:
  25              	.LFB65:
  26              		.file 1 "../../lib/libhalglue/common/bshal_delay.c"
   1:../../lib/libhalglue/common/bshal_delay.c **** /*
   2:../../lib/libhalglue/common/bshal_delay.c ****  * Copyright (c) 2021
   3:../../lib/libhalglue/common/bshal_delay.c ****  * 				André van Schoubroeck <andre@blaatschaap.be>
   4:../../lib/libhalglue/common/bshal_delay.c ****  *
   5:../../lib/libhalglue/common/bshal_delay.c ****  * Based upon nrfx_coredep.h from nrfx by Nordic:
   6:../../lib/libhalglue/common/bshal_delay.c ****  *
   7:../../lib/libhalglue/common/bshal_delay.c ****  * Copyright (c) 2018 - 2021, Nordic Semiconductor ASA
   8:../../lib/libhalglue/common/bshal_delay.c ****  * All rights reserved.
   9:../../lib/libhalglue/common/bshal_delay.c ****  *
  10:../../lib/libhalglue/common/bshal_delay.c ****  *
  11:../../lib/libhalglue/common/bshal_delay.c ****  * SPDX-License-Identifier: BSD-3-Clause
  12:../../lib/libhalglue/common/bshal_delay.c ****  *
  13:../../lib/libhalglue/common/bshal_delay.c ****  * Redistribution and use in source and binary forms, with or without
  14:../../lib/libhalglue/common/bshal_delay.c ****  * modification, are permitted provided that the following conditions are met:
  15:../../lib/libhalglue/common/bshal_delay.c ****  *
  16:../../lib/libhalglue/common/bshal_delay.c ****  * 1. Redistributions of source code must retain the above copyright notice, this
  17:../../lib/libhalglue/common/bshal_delay.c ****  *    list of conditions and the following disclaimer.
  18:../../lib/libhalglue/common/bshal_delay.c ****  *
  19:../../lib/libhalglue/common/bshal_delay.c ****  * 2. Redistributions in binary form must reproduce the above copyright
  20:../../lib/libhalglue/common/bshal_delay.c ****  *    notice, this list of conditions and the following disclaimer in the
  21:../../lib/libhalglue/common/bshal_delay.c ****  *    documentation and/or other materials provided with the distribution.
  22:../../lib/libhalglue/common/bshal_delay.c ****  *
  23:../../lib/libhalglue/common/bshal_delay.c ****  * 3. Neither the name of the copyright holder nor the names of its
  24:../../lib/libhalglue/common/bshal_delay.c ****  *    contributors may be used to endorse or promote products derived from this
  25:../../lib/libhalglue/common/bshal_delay.c ****  *    software without specific prior written permission.
  26:../../lib/libhalglue/common/bshal_delay.c ****  *
  27:../../lib/libhalglue/common/bshal_delay.c ****  * THIS SOFTWARE IS PROVIDED BY THE COPYRIGHT HOLDERS AND CONTRIBUTORS "AS IS"
  28:../../lib/libhalglue/common/bshal_delay.c ****  * AND ANY EXPRESS OR IMPLIED WARRANTIES, INCLUDING, BUT NOT LIMITED TO, THE
  29:../../lib/libhalglue/common/bshal_delay.c ****  * IMPLIED WARRANTIES OF MERCHANTABILITY AND FITNESS FOR A PARTICULAR PURPOSE
  30:../../lib/libhalglue/common/bshal_delay.c ****  * ARE DISCLAIMED. IN NO EVENT SHALL THE COPYRIGHT HOLDER OR CONTRIBUTORS BE
  31:../../lib/libhalglue/common/bshal_delay.c ****  * LIABLE FOR ANY DIRECT, INDIRECT, INCIDENTAL, SPECIAL, EXEMPLARY, OR
  32:../../lib/libhalglue/common/bshal_delay.c ****  * CONSEQUENTIAL DAMAGES (INCLUDING, BUT NOT LIMITED TO, PROCUREMENT OF
ARM GAS  /tmp/cc04WtHU.s 			page 2


  33:../../lib/libhalglue/common/bshal_delay.c ****  * SUBSTITUTE GOODS OR SERVICES; LOSS OF USE, DATA, OR PROFITS; OR BUSINESS
  34:../../lib/libhalglue/common/bshal_delay.c ****  * INTERRUPTION) HOWEVER CAUSED AND ON ANY THEORY OF LIABILITY, WHETHER IN
  35:../../lib/libhalglue/common/bshal_delay.c ****  * CONTRACT, STRICT LIABILITY, OR TORT (INCLUDING NEGLIGENCE OR OTHERWISE)
  36:../../lib/libhalglue/common/bshal_delay.c ****  * ARISING IN ANY WAY OUT OF THE USE OF THIS SOFTWARE, EVEN IF ADVISED OF THE
  37:../../lib/libhalglue/common/bshal_delay.c ****  * POSSIBILITY OF SUCH DAMAGE.
  38:../../lib/libhalglue/common/bshal_delay.c ****  */
  39:../../lib/libhalglue/common/bshal_delay.c **** 
  40:../../lib/libhalglue/common/bshal_delay.c **** #include "bshal_delay.h"
  41:../../lib/libhalglue/common/bshal_delay.c **** #include "system.h"
  42:../../lib/libhalglue/common/bshal_delay.c **** 
  43:../../lib/libhalglue/common/bshal_delay.c **** #ifdef __arm__
  44:../../lib/libhalglue/common/bshal_delay.c **** #include "arm_cpuid.h"
  45:../../lib/libhalglue/common/bshal_delay.c **** #endif
  46:../../lib/libhalglue/common/bshal_delay.c **** 
  47:../../lib/libhalglue/common/bshal_delay.c **** // Should probably a ramfuncion
  48:../../lib/libhalglue/common/bshal_delay.c **** void delay_cycles_asm(uint32_t time_cycles) {
  27              		.loc 1 48 45
  28              		.cfi_startproc
  29              		@ args = 0, pretend = 0, frame = 8
  30              		@ frame_needed = 1, uses_anonymous_args = 0
  31              		@ link register save eliminated.
  32 0000 80B4     		push	{r7}
  33              		.cfi_def_cfa_offset 4
  34              		.cfi_offset 7, -4
  35 0002 83B0     		sub	sp, sp, #12
  36              		.cfi_def_cfa_offset 16
  37 0004 00AF     		add	r7, sp, #0
  38              		.cfi_def_cfa_register 7
  39 0006 7860     		str	r0, [r7, #4]
  49:../../lib/libhalglue/common/bshal_delay.c **** #if (defined __thumb2__)
  50:../../lib/libhalglue/common/bshal_delay.c **** 	static uint32_t cycles_per_loop = 3;
  51:../../lib/libhalglue/common/bshal_delay.c **** 	asm("loop:" );
  40              		.loc 1 51 2
  41              		.syntax unified
  42              	@ 51 "../../lib/libhalglue/common/bshal_delay.c" 1
  43              		loop:
  44              	@ 0 "" 2
  52:../../lib/libhalglue/common/bshal_delay.c **** 	asm("subs  r0, %0" :: "r" (cycles_per_loop) ); 	// 1 cycle
  45              		.loc 1 52 2
  46              		.thumb
  47              		.syntax unified
  48 0008 044B     		ldr	r3, .L2
  49 000a 1B68     		ldr	r3, [r3]
  50              		.syntax unified
  51              	@ 52 "../../lib/libhalglue/common/bshal_delay.c" 1
  52 000c C01A     		subs  r0, r3
  53              	@ 0 "" 2
  53:../../lib/libhalglue/common/bshal_delay.c **** 	asm("bhi loop"); 								// 2 cycles
  54              		.loc 1 53 2
  55              	@ 53 "../../lib/libhalglue/common/bshal_delay.c" 1
  56 000e FBD8     		bhi loop
  57              	@ 0 "" 2
  54:../../lib/libhalglue/common/bshal_delay.c **** #elif (__thumb__)
  55:../../lib/libhalglue/common/bshal_delay.c **** 	// TODO VERIFY THIS 
  56:../../lib/libhalglue/common/bshal_delay.c **** 	// THis sub in stead of subs would be wrong (not updating the flags? or?)
  57:../../lib/libhalglue/common/bshal_delay.c **** 	// On an M3, using sub in stead of subs make loop only once rather then
  58:../../lib/libhalglue/common/bshal_delay.c **** 	// counting down
ARM GAS  /tmp/cc04WtHU.s 			page 3


  59:../../lib/libhalglue/common/bshal_delay.c **** 	static uint32_t cycles_per_loop = 3;
  60:../../lib/libhalglue/common/bshal_delay.c **** 	asm("loop:" );
  61:../../lib/libhalglue/common/bshal_delay.c **** 	asm("sub  r0, %0" :: "l" (cycles_per_loop) ); 	
  62:../../lib/libhalglue/common/bshal_delay.c **** 	asm("bhi loop");
  63:../../lib/libhalglue/common/bshal_delay.c **** #else 				
  64:../../lib/libhalglue/common/bshal_delay.c **** #error "CPU Architecture Not Supported"
  65:../../lib/libhalglue/common/bshal_delay.c **** #endif
  66:../../lib/libhalglue/common/bshal_delay.c **** }
  58              		.loc 1 66 1
  59              		.thumb
  60              		.syntax unified
  61 0010 00BF     		nop
  62 0012 0C37     		adds	r7, r7, #12
  63              		.cfi_def_cfa_offset 4
  64 0014 BD46     		mov	sp, r7
  65              		.cfi_def_cfa_register 13
  66              		@ sp needed
  67 0016 80BC     		pop	{r7}
  68              		.cfi_restore 7
  69              		.cfi_def_cfa_offset 0
  70 0018 7047     		bx	lr
  71              	.L3:
  72 001a 00BF     		.align	2
  73              	.L2:
  74 001c 00000000 		.word	cycles_per_loop.0
  75              		.cfi_endproc
  76              	.LFE65:
  78              		.global	bshal_delay_cycles
  79              		.section	.data.bshal_delay_cycles,"aw"
  80              		.align	2
  83              	bshal_delay_cycles:
  84 0000 00000000 		.word	delay_cycles_asm
  85              		.section	.text.delay_cycles_dwt,"ax",%progbits
  86              		.align	1
  87              		.syntax unified
  88              		.thumb
  89              		.thumb_func
  90              		.fpu softvfp
  92              	delay_cycles_dwt:
  93              	.LFB66:
  67:../../lib/libhalglue/common/bshal_delay.c **** 
  68:../../lib/libhalglue/common/bshal_delay.c **** delay_fn bshal_delay_cycles = delay_cycles_asm;
  69:../../lib/libhalglue/common/bshal_delay.c **** 
  70:../../lib/libhalglue/common/bshal_delay.c **** 
  71:../../lib/libhalglue/common/bshal_delay.c **** #if ( __ARM_ARCH >= 7 ) && ( __ARM_ARCH_PROFILE == 'M' )
  72:../../lib/libhalglue/common/bshal_delay.c **** static void delay_cycles_dwt(uint32_t time_cycles) {
  94              		.loc 1 72 52
  95              		.cfi_startproc
  96              		@ args = 0, pretend = 0, frame = 24
  97              		@ frame_needed = 1, uses_anonymous_args = 0
  98              		@ link register save eliminated.
  99 0000 80B4     		push	{r7}
 100              		.cfi_def_cfa_offset 4
 101              		.cfi_offset 7, -4
 102 0002 87B0     		sub	sp, sp, #28
 103              		.cfi_def_cfa_offset 32
 104 0004 00AF     		add	r7, sp, #0
ARM GAS  /tmp/cc04WtHU.s 			page 4


 105              		.cfi_def_cfa_register 7
 106 0006 7860     		str	r0, [r7, #4]
  73:../../lib/libhalglue/common/bshal_delay.c **** 	// Based upon nrfx_coredep.h from nrfx by Nordic:
  74:../../lib/libhalglue/common/bshal_delay.c **** 
  75:../../lib/libhalglue/common/bshal_delay.c **** 	// Save the current state of the DEMCR register to be able to restore it before exiting
  76:../../lib/libhalglue/common/bshal_delay.c **** 	// this function. Enable the trace and debug blocks (including DWT).
  77:../../lib/libhalglue/common/bshal_delay.c **** 	uint32_t core_debug = CoreDebug->DEMCR;
 107              		.loc 1 77 33
 108 0008 124B     		ldr	r3, .L6
 109              		.loc 1 77 11
 110 000a DB68     		ldr	r3, [r3, #12]
 111 000c 7B61     		str	r3, [r7, #20]
  78:../../lib/libhalglue/common/bshal_delay.c **** 	CoreDebug->DEMCR = core_debug | CoreDebug_DEMCR_TRCENA_Msk;
 112              		.loc 1 78 11
 113 000e 114A     		ldr	r2, .L6
 114              		.loc 1 78 32
 115 0010 7B69     		ldr	r3, [r7, #20]
 116 0012 43F08073 		orr	r3, r3, #16777216
 117              		.loc 1 78 19
 118 0016 D360     		str	r3, [r2, #12]
  79:../../lib/libhalglue/common/bshal_delay.c **** 
  80:../../lib/libhalglue/common/bshal_delay.c **** 	// Save the current state of the CTRL register in the DWT block. Make sure
  81:../../lib/libhalglue/common/bshal_delay.c **** 	// that the cycle counter is enabled.
  82:../../lib/libhalglue/common/bshal_delay.c **** 	uint32_t dwt_ctrl = DWT->CTRL;
 119              		.loc 1 82 25
 120 0018 0F4B     		ldr	r3, .L6+4
 121              		.loc 1 82 11
 122 001a 1B68     		ldr	r3, [r3]
 123 001c 3B61     		str	r3, [r7, #16]
  83:../../lib/libhalglue/common/bshal_delay.c **** 	DWT->CTRL = dwt_ctrl | DWT_CTRL_CYCCNTENA_Msk;
 124              		.loc 1 83 5
 125 001e 0E4A     		ldr	r2, .L6+4
 126              		.loc 1 83 23
 127 0020 3B69     		ldr	r3, [r7, #16]
 128 0022 43F00103 		orr	r3, r3, #1
 129              		.loc 1 83 12
 130 0026 1360     		str	r3, [r2]
  84:../../lib/libhalglue/common/bshal_delay.c **** 
  85:../../lib/libhalglue/common/bshal_delay.c **** 	// Store start value of the cycle counter.
  86:../../lib/libhalglue/common/bshal_delay.c **** 	uint32_t cyccnt_initial = DWT->CYCCNT;
 131              		.loc 1 86 31
 132 0028 0B4B     		ldr	r3, .L6+4
 133              		.loc 1 86 11
 134 002a 5B68     		ldr	r3, [r3, #4]
 135 002c FB60     		str	r3, [r7, #12]
  87:../../lib/libhalglue/common/bshal_delay.c **** 
  88:../../lib/libhalglue/common/bshal_delay.c **** 	// Delay required time.
  89:../../lib/libhalglue/common/bshal_delay.c **** 	while ((DWT->CYCCNT - cyccnt_initial) < time_cycles)
 136              		.loc 1 89 8
 137 002e 00BF     		nop
 138              	.L5:
 139              		.loc 1 89 13 discriminator 1
 140 0030 094B     		ldr	r3, .L6+4
 141 0032 5A68     		ldr	r2, [r3, #4]
 142              		.loc 1 89 22 discriminator 1
 143 0034 FB68     		ldr	r3, [r7, #12]
 144 0036 D31A     		subs	r3, r2, r3
ARM GAS  /tmp/cc04WtHU.s 			page 5


 145              		.loc 1 89 40 discriminator 1
 146 0038 7A68     		ldr	r2, [r7, #4]
 147 003a 9A42     		cmp	r2, r3
 148 003c F8D8     		bhi	.L5
  90:../../lib/libhalglue/common/bshal_delay.c **** 		;
  91:../../lib/libhalglue/common/bshal_delay.c **** 
  92:../../lib/libhalglue/common/bshal_delay.c **** 	// Restore preserved registers.
  93:../../lib/libhalglue/common/bshal_delay.c **** 	DWT->CTRL = dwt_ctrl;
 149              		.loc 1 93 5
 150 003e 064A     		ldr	r2, .L6+4
 151              		.loc 1 93 12
 152 0040 3B69     		ldr	r3, [r7, #16]
 153 0042 1360     		str	r3, [r2]
  94:../../lib/libhalglue/common/bshal_delay.c **** 	CoreDebug->DEMCR = core_debug;
 154              		.loc 1 94 11
 155 0044 034A     		ldr	r2, .L6
 156              		.loc 1 94 19
 157 0046 7B69     		ldr	r3, [r7, #20]
 158 0048 D360     		str	r3, [r2, #12]
  95:../../lib/libhalglue/common/bshal_delay.c **** }
 159              		.loc 1 95 1
 160 004a 00BF     		nop
 161 004c 1C37     		adds	r7, r7, #28
 162              		.cfi_def_cfa_offset 4
 163 004e BD46     		mov	sp, r7
 164              		.cfi_def_cfa_register 13
 165              		@ sp needed
 166 0050 80BC     		pop	{r7}
 167              		.cfi_restore 7
 168              		.cfi_def_cfa_offset 0
 169 0052 7047     		bx	lr
 170              	.L7:
 171              		.align	2
 172              	.L6:
 173 0054 F0ED00E0 		.word	-536810000
 174 0058 001000E0 		.word	-536866816
 175              		.cfi_endproc
 176              	.LFE66:
 178              		.section	.text.bshal_delay_us,"ax",%progbits
 179              		.align	1
 180              		.global	bshal_delay_us
 181              		.syntax unified
 182              		.thumb
 183              		.thumb_func
 184              		.fpu softvfp
 186              	bshal_delay_us:
 187              	.LFB67:
  96:../../lib/libhalglue/common/bshal_delay.c **** #endif
  97:../../lib/libhalglue/common/bshal_delay.c **** 
  98:../../lib/libhalglue/common/bshal_delay.c **** 
  99:../../lib/libhalglue/common/bshal_delay.c **** void bshal_delay_us(uint32_t delay_us) {
 188              		.loc 1 99 40
 189              		.cfi_startproc
 190              		@ args = 0, pretend = 0, frame = 8
 191              		@ frame_needed = 1, uses_anonymous_args = 0
 192 0000 80B5     		push	{r7, lr}
 193              		.cfi_def_cfa_offset 8
ARM GAS  /tmp/cc04WtHU.s 			page 6


 194              		.cfi_offset 7, -8
 195              		.cfi_offset 14, -4
 196 0002 82B0     		sub	sp, sp, #8
 197              		.cfi_def_cfa_offset 16
 198 0004 00AF     		add	r7, sp, #0
 199              		.cfi_def_cfa_register 7
 200 0006 7860     		str	r0, [r7, #4]
 100:../../lib/libhalglue/common/bshal_delay.c **** 	bshal_delay_cycles(delay_us * (SystemCoreClock / 1000000));
 201              		.loc 1 100 2
 202 0008 084B     		ldr	r3, .L9
 203 000a 1B68     		ldr	r3, [r3]
 204              		.loc 1 100 49
 205 000c 084A     		ldr	r2, .L9+4
 206 000e 1268     		ldr	r2, [r2]
 207 0010 0849     		ldr	r1, .L9+8
 208 0012 A1FB0212 		umull	r1, r2, r1, r2
 209 0016 920C     		lsrs	r2, r2, #18
 210              		.loc 1 100 2
 211 0018 7968     		ldr	r1, [r7, #4]
 212 001a 01FB02F2 		mul	r2, r1, r2
 213 001e 1046     		mov	r0, r2
 214 0020 9847     		blx	r3
 215              	.LVL0:
 101:../../lib/libhalglue/common/bshal_delay.c **** }
 216              		.loc 1 101 1
 217 0022 00BF     		nop
 218 0024 0837     		adds	r7, r7, #8
 219              		.cfi_def_cfa_offset 8
 220 0026 BD46     		mov	sp, r7
 221              		.cfi_def_cfa_register 13
 222              		@ sp needed
 223 0028 80BD     		pop	{r7, pc}
 224              	.L10:
 225 002a 00BF     		.align	2
 226              	.L9:
 227 002c 00000000 		.word	bshal_delay_cycles
 228 0030 00000000 		.word	SystemCoreClock
 229 0034 83DE1B43 		.word	1125899907
 230              		.cfi_endproc
 231              	.LFE67:
 233              		.section	.text.bshal_delay_ms,"ax",%progbits
 234              		.align	1
 235              		.global	bshal_delay_ms
 236              		.syntax unified
 237              		.thumb
 238              		.thumb_func
 239              		.fpu softvfp
 241              	bshal_delay_ms:
 242              	.LFB68:
 102:../../lib/libhalglue/common/bshal_delay.c **** 
 103:../../lib/libhalglue/common/bshal_delay.c **** void bshal_delay_ms(uint32_t delay_ms) {
 243              		.loc 1 103 40
 244              		.cfi_startproc
 245              		@ args = 0, pretend = 0, frame = 8
 246              		@ frame_needed = 1, uses_anonymous_args = 0
 247 0000 80B5     		push	{r7, lr}
 248              		.cfi_def_cfa_offset 8
ARM GAS  /tmp/cc04WtHU.s 			page 7


 249              		.cfi_offset 7, -8
 250              		.cfi_offset 14, -4
 251 0002 82B0     		sub	sp, sp, #8
 252              		.cfi_def_cfa_offset 16
 253 0004 00AF     		add	r7, sp, #0
 254              		.cfi_def_cfa_register 7
 255 0006 7860     		str	r0, [r7, #4]
 104:../../lib/libhalglue/common/bshal_delay.c **** 	bshal_delay_us(delay_ms * 1000);
 256              		.loc 1 104 2
 257 0008 7B68     		ldr	r3, [r7, #4]
 258 000a 4FF47A72 		mov	r2, #1000
 259 000e 02FB03F3 		mul	r3, r2, r3
 260 0012 1846     		mov	r0, r3
 261 0014 FFF7FEFF 		bl	bshal_delay_us
 105:../../lib/libhalglue/common/bshal_delay.c **** }
 262              		.loc 1 105 1
 263 0018 00BF     		nop
 264 001a 0837     		adds	r7, r7, #8
 265              		.cfi_def_cfa_offset 8
 266 001c BD46     		mov	sp, r7
 267              		.cfi_def_cfa_register 13
 268              		@ sp needed
 269 001e 80BD     		pop	{r7, pc}
 270              		.cfi_endproc
 271              	.LFE68:
 273              		.section	.text.bshal_delay_init,"ax",%progbits
 274              		.align	1
 275              		.global	bshal_delay_init
 276              		.syntax unified
 277              		.thumb
 278              		.thumb_func
 279              		.fpu softvfp
 281              	bshal_delay_init:
 282              	.LFB69:
 106:../../lib/libhalglue/common/bshal_delay.c **** 
 107:../../lib/libhalglue/common/bshal_delay.c **** int bshal_delay_init(void) {
 283              		.loc 1 107 28
 284              		.cfi_startproc
 285              		@ args = 0, pretend = 0, frame = 8
 286              		@ frame_needed = 1, uses_anonymous_args = 0
 287              		@ link register save eliminated.
 288 0000 80B4     		push	{r7}
 289              		.cfi_def_cfa_offset 4
 290              		.cfi_offset 7, -4
 291 0002 83B0     		sub	sp, sp, #12
 292              		.cfi_def_cfa_offset 16
 293 0004 00AF     		add	r7, sp, #0
 294              		.cfi_def_cfa_register 7
 108:../../lib/libhalglue/common/bshal_delay.c **** 	// Check whether our current core supports DWT
 109:../../lib/libhalglue/common/bshal_delay.c **** #if ( __ARM_ARCH >= 7 ) && ( __ARM_ARCH_PROFILE == 'M' )
 110:../../lib/libhalglue/common/bshal_delay.c **** 
 111:../../lib/libhalglue/common/bshal_delay.c **** 	// ATMv7-M Architecture Reference Manual
 112:../../lib/libhalglue/common/bshal_delay.c **** 	// page 742 Table C1-2
 113:../../lib/libhalglue/common/bshal_delay.c **** 	// ROM Table Entry ROMDWT[0]
 114:../../lib/libhalglue/common/bshal_delay.c **** 
 115:../../lib/libhalglue/common/bshal_delay.c **** 	// Page 744 - Table C1-3
 116:../../lib/libhalglue/common/bshal_delay.c **** 	// Points to the Data Watchpoint and Trace unit at 0xE0001000.
ARM GAS  /tmp/cc04WtHU.s 			page 8


 117:../../lib/libhalglue/common/bshal_delay.c **** 	// Bit[0] is set to 1 if a DWT is fitted.
 118:../../lib/libhalglue/common/bshal_delay.c **** 	// Page 798 -
 119:../../lib/libhalglue/common/bshal_delay.c **** 	// NOCYCCNT, bit[25] 0 - Cycle counter supported.
 120:../../lib/libhalglue/common/bshal_delay.c **** 
 121:../../lib/libhalglue/common/bshal_delay.c **** 	// TODO: Is there a mask defined for this?
 122:../../lib/libhalglue/common/bshal_delay.c **** 	// Also... can we make use a struct with bitfields instead
 123:../../lib/libhalglue/common/bshal_delay.c **** 	bool use_dwt = (CORTEX_M_ROMTABLE->dwt & 1) && (!(DWT->CTRL & (1 << 25)));
 295              		.loc 1 123 35
 296 0006 124B     		ldr	r3, .L17
 297 0008 5B68     		ldr	r3, [r3, #4]
 298              		.loc 1 123 41
 299 000a 03F00103 		and	r3, r3, #1
 300              		.loc 1 123 46
 301 000e 002B     		cmp	r3, #0
 302 0010 07D0     		beq	.L13
 303              		.loc 1 123 55 discriminator 1
 304 0012 104B     		ldr	r3, .L17+4
 305 0014 1B68     		ldr	r3, [r3]
 306              		.loc 1 123 62 discriminator 1
 307 0016 03F00073 		and	r3, r3, #33554432
 308              		.loc 1 123 46 discriminator 1
 309 001a 002B     		cmp	r3, #0
 310 001c 01D1     		bne	.L13
 311              		.loc 1 123 46 is_stmt 0 discriminator 3
 312 001e 0123     		movs	r3, #1
 313 0020 00E0     		b	.L14
 314              	.L13:
 315              		.loc 1 123 46 discriminator 4
 316 0022 0023     		movs	r3, #0
 317              	.L14:
 318              		.loc 1 123 7 is_stmt 1 discriminator 6
 319 0024 FB71     		strb	r3, [r7, #7]
 320 0026 FB79     		ldrb	r3, [r7, #7]
 321 0028 03F00103 		and	r3, r3, #1
 322 002c FB71     		strb	r3, [r7, #7]
 124:../../lib/libhalglue/common/bshal_delay.c **** 
 125:../../lib/libhalglue/common/bshal_delay.c **** 	if (use_dwt)
 323              		.loc 1 125 5 discriminator 6
 324 002e FB79     		ldrb	r3, [r7, #7]	@ zero_extendqisi2
 325 0030 002B     		cmp	r3, #0
 326 0032 03D0     		beq	.L15
 126:../../lib/libhalglue/common/bshal_delay.c **** 		bshal_delay_cycles = delay_cycles_dwt;
 327              		.loc 1 126 22
 328 0034 084B     		ldr	r3, .L17+8
 329 0036 094A     		ldr	r2, .L17+12
 330 0038 1A60     		str	r2, [r3]
 331 003a 02E0     		b	.L16
 332              	.L15:
 127:../../lib/libhalglue/common/bshal_delay.c **** 	else
 128:../../lib/libhalglue/common/bshal_delay.c **** #endif
 129:../../lib/libhalglue/common/bshal_delay.c **** 		bshal_delay_cycles = delay_cycles_asm;
 333              		.loc 1 129 22
 334 003c 064B     		ldr	r3, .L17+8
 335 003e 084A     		ldr	r2, .L17+16
 336 0040 1A60     		str	r2, [r3]
 337              	.L16:
 130:../../lib/libhalglue/common/bshal_delay.c **** }
ARM GAS  /tmp/cc04WtHU.s 			page 9


 338              		.loc 1 130 1
 339 0042 00BF     		nop
 340 0044 1846     		mov	r0, r3
 341 0046 0C37     		adds	r7, r7, #12
 342              		.cfi_def_cfa_offset 4
 343 0048 BD46     		mov	sp, r7
 344              		.cfi_def_cfa_register 13
 345              		@ sp needed
 346 004a 80BC     		pop	{r7}
 347              		.cfi_restore 7
 348              		.cfi_def_cfa_offset 0
 349 004c 7047     		bx	lr
 350              	.L18:
 351 004e 00BF     		.align	2
 352              	.L17:
 353 0050 00F00FE0 		.word	-535826432
 354 0054 001000E0 		.word	-536866816
 355 0058 00000000 		.word	bshal_delay_cycles
 356 005c 00000000 		.word	delay_cycles_dwt
 357 0060 00000000 		.word	delay_cycles_asm
 358              		.cfi_endproc
 359              	.LFE69:
 361              		.section	.data.cycles_per_loop.0,"aw"
 362              		.align	2
 365              	cycles_per_loop.0:
 366 0000 03000000 		.word	3
 367              		.text
 368              	.Letext0:
 369              		.file 2 "/usr/arm-none-eabi/include/machine/_default_types.h"
 370              		.file 3 "/usr/arm-none-eabi/include/sys/_stdint.h"
 371              		.file 4 "../../lib/libhalglue/common/bshal_delay.h"
 372              		.file 5 "../../ext/STM32CubeF1/Drivers/CMSIS/Core/Include/core_cm3.h"
 373              		.file 6 "../../lib/libhalglue/common/arm_cpuid.h"
 374              		.file 7 "../../ext/STM32CubeF1/Drivers/CMSIS/Device/ST/STM32F1xx/Include/system_stm32f1xx.h"
ARM GAS  /tmp/cc04WtHU.s 			page 10

