ARM GAS  /tmp/ccwaORKT.s 			page 1


   1              		.cpu cortex-m3
   2              		.eabi_attribute 20, 1
   3              		.eabi_attribute 21, 1
   4              		.eabi_attribute 23, 3
   5              		.eabi_attribute 24, 1
   6              		.eabi_attribute 25, 1
   7              		.eabi_attribute 26, 1
   8              		.eabi_attribute 30, 6
   9              		.eabi_attribute 34, 1
  10              		.eabi_attribute 18, 4
  11              		.file	"main.c"
  12              		.text
  13              	.Ltext0:
  14              		.cfi_sections	.debug_frame
  15              		.section	.text.HardFault_Handler,"ax",%progbits
  16              		.align	1
  17              		.global	HardFault_Handler
  18              		.arch armv7-m
  19              		.syntax unified
  20              		.thumb
  21              		.thumb_func
  22              		.fpu softvfp
  24              	HardFault_Handler:
  25              	.LFB65:
  26              		.file 1 "main.c"
   1:main.c        **** /*
   2:main.c        **** 
   3:main.c        ****  File: 		main.c
   4:main.c        ****  Author:	André van Schoubroeck
   5:main.c        ****  License:	MIT
   6:main.c        **** 
   7:main.c        **** 
   8:main.c        ****  MIT License
   9:main.c        **** 
  10:main.c        ****  Copyright (c) 2017, 2018, 2019, 2020 André van Schoubroeck <andre@blaatschaap.be>
  11:main.c        **** 
  12:main.c        ****  Permission is hereby granted, free of charge, to any person obtaining a copy
  13:main.c        ****  of this software and associated documentation files (the "Software"), to deal
  14:main.c        ****  in the Software without restriction, including without limitation the rights
  15:main.c        ****  to use, copy, modify, merge, publish, distribute, sublicense, and/or sell
  16:main.c        ****  copies of the Software, and to permit persons to whom the Software is
  17:main.c        ****  furnished to do so, subject to the following conditions:
  18:main.c        ****  The above copyright notice and this permission notice shall be included in all
  19:main.c        ****  copies or substantial portions of the Software.
  20:main.c        **** 
  21:main.c        ****  THE SOFTWARE IS PROVIDED "AS IS", WITHOUT WARRANTY OF ANY KIND, EXPRESS OR
  22:main.c        ****  IMPLIED, INCLUDING BUT NOT LIMITED TO THE WARRANTIES OF MERCHANTABILITY,
  23:main.c        ****  FITNESS FOR A PARTICULAR PURPOSE AND NONINFRINGEMENT. IN NO EVENT SHALL THE
  24:main.c        ****  AUTHORS OR COPYRIGHT HOLDERS BE LIABLE FOR ANY CLAIM, DAMAGES OR OTHER
  25:main.c        ****  LIABILITY, WHETHER IN AN ACTION OF CONTRACT, TORT OR OTHERWISE, ARISING FROM,
  26:main.c        ****  OUT OF OR IN CONNECTION WITH THE SOFTWARE OR THE USE OR OTHER DEALINGS IN THE
  27:main.c        ****  SOFTWARE.
  28:main.c        **** 
  29:main.c        ****  */
  30:main.c        **** 
  31:main.c        **** #include <stdbool.h>
  32:main.c        **** #include <string.h>
ARM GAS  /tmp/ccwaORKT.s 			page 2


  33:main.c        **** #include <stdfix.h>
  34:main.c        **** 
  35:main.c        **** #include "system.h"
  36:main.c        **** 
  37:main.c        **** #include "bshal_spim.h"
  38:main.c        **** #include "bshal_delay.h"
  39:main.c        **** #include "bshal_i2cm.h"
  40:main.c        **** 
  41:main.c        **** #include "u8g2.h"
  42:main.c        **** 
  43:main.c        **** void HardFault_Handler(void) {
  27              		.loc 1 43 30
  28              		.cfi_startproc
  29              		@ args = 0, pretend = 0, frame = 0
  30              		@ frame_needed = 1, uses_anonymous_args = 0
  31              		@ link register save eliminated.
  32 0000 80B4     		push	{r7}
  33              		.cfi_def_cfa_offset 4
  34              		.cfi_offset 7, -4
  35 0002 00AF     		add	r7, sp, #0
  36              		.cfi_def_cfa_register 7
  44:main.c        **** 
  45:main.c        **** }
  37              		.loc 1 45 1
  38 0004 00BF     		nop
  39 0006 BD46     		mov	sp, r7
  40              		.cfi_def_cfa_register 13
  41              		@ sp needed
  42 0008 80BC     		pop	{r7}
  43              		.cfi_restore 7
  44              		.cfi_def_cfa_offset 0
  45 000a 7047     		bx	lr
  46              		.cfi_endproc
  47              	.LFE65:
  49              		.section	.text.SysTick_Handler,"ax",%progbits
  50              		.align	1
  51              		.global	SysTick_Handler
  52              		.syntax unified
  53              		.thumb
  54              		.thumb_func
  55              		.fpu softvfp
  57              	SysTick_Handler:
  58              	.LFB66:
  46:main.c        **** 
  47:main.c        **** void SysTick_Handler(void) {
  59              		.loc 1 47 28
  60              		.cfi_startproc
  61              		@ args = 0, pretend = 0, frame = 0
  62              		@ frame_needed = 1, uses_anonymous_args = 0
  63              		@ link register save eliminated.
  64 0000 80B4     		push	{r7}
  65              		.cfi_def_cfa_offset 4
  66              		.cfi_offset 7, -4
  67 0002 00AF     		add	r7, sp, #0
  68              		.cfi_def_cfa_register 7
  48:main.c        **** 
  49:main.c        **** }
ARM GAS  /tmp/ccwaORKT.s 			page 3


  69              		.loc 1 49 1
  70 0004 00BF     		nop
  71 0006 BD46     		mov	sp, r7
  72              		.cfi_def_cfa_register 13
  73              		@ sp needed
  74 0008 80BC     		pop	{r7}
  75              		.cfi_restore 7
  76              		.cfi_def_cfa_offset 0
  77 000a 7047     		bx	lr
  78              		.cfi_endproc
  79              	.LFE66:
  81              		.section	.text.SystemClock_Config,"ax",%progbits
  82              		.align	1
  83              		.global	SystemClock_Config
  84              		.syntax unified
  85              		.thumb
  86              		.thumb_func
  87              		.fpu softvfp
  89              	SystemClock_Config:
  90              	.LFB67:
  50:main.c        **** 
  51:main.c        **** void SystemClock_Config(void) {
  91              		.loc 1 51 31
  92              		.cfi_startproc
  93              		@ args = 0, pretend = 0, frame = 0
  94              		@ frame_needed = 1, uses_anonymous_args = 0
  95 0000 80B5     		push	{r7, lr}
  96              		.cfi_def_cfa_offset 8
  97              		.cfi_offset 7, -8
  98              		.cfi_offset 14, -4
  99 0002 00AF     		add	r7, sp, #0
 100              		.cfi_def_cfa_register 7
  52:main.c        **** 	ClockSetup_HSE8_SYS72();
 101              		.loc 1 52 2
 102 0004 FFF7FEFF 		bl	ClockSetup_HSE8_SYS72
  53:main.c        **** }
 103              		.loc 1 53 1
 104 0008 00BF     		nop
 105 000a 80BD     		pop	{r7, pc}
 106              		.cfi_endproc
 107              	.LFE67:
 109              		.global	spi_config_screen_screen
 110              		.section	.bss.spi_config_screen_screen,"aw",%nobits
 111              		.align	2
 114              	spi_config_screen_screen:
 115 0000 00000000 		.space	24
 115      00000000 
 115      00000000 
 115      00000000 
 115      00000000 
 116              		.section	.text.screen_init,"ax",%progbits
 117              		.align	1
 118              		.global	screen_init
 119              		.syntax unified
 120              		.thumb
 121              		.thumb_func
 122              		.fpu softvfp
ARM GAS  /tmp/ccwaORKT.s 			page 4


 124              	screen_init:
 125              	.LFB68:
  54:main.c        **** 
  55:main.c        **** bshal_spim_t spi_config_screen_screen;
  56:main.c        **** 
  57:main.c        **** void screen_init(){
 126              		.loc 1 57 19
 127              		.cfi_startproc
 128              		@ args = 0, pretend = 0, frame = 0
 129              		@ frame_needed = 1, uses_anonymous_args = 0
 130              		@ link register save eliminated.
 131 0000 80B4     		push	{r7}
 132              		.cfi_def_cfa_offset 4
 133              		.cfi_offset 7, -4
 134 0002 00AF     		add	r7, sp, #0
 135              		.cfi_def_cfa_register 7
  58:main.c        **** 
  59:main.c        **** }
 136              		.loc 1 59 1
 137 0004 00BF     		nop
 138 0006 BD46     		mov	sp, r7
 139              		.cfi_def_cfa_register 13
 140              		@ sp needed
 141 0008 80BC     		pop	{r7}
 142              		.cfi_restore 7
 143              		.cfi_def_cfa_offset 0
 144 000a 7047     		bx	lr
 145              		.cfi_endproc
 146              	.LFE68:
 148              		.section	.rodata
 149              		.align	2
 150              	.LC0:
 151 0000 48656C6C 		.ascii	"Hello World\000"
 151      6F20576F 
 151      726C6400 
 152              		.section	.text.main,"ax",%progbits
 153              		.align	1
 154              		.global	main
 155              		.syntax unified
 156              		.thumb
 157              		.thumb_func
 158              		.fpu softvfp
 160              	main:
 161              	.LFB69:
  60:main.c        **** 
  61:main.c        **** 
  62:main.c        **** 
  63:main.c        **** int main() {
 162              		.loc 1 63 12
 163              		.cfi_startproc
 164              		@ args = 0, pretend = 0, frame = 0
 165              		@ frame_needed = 1, uses_anonymous_args = 0
 166 0000 80B5     		push	{r7, lr}
 167              		.cfi_def_cfa_offset 8
 168              		.cfi_offset 7, -8
 169              		.cfi_offset 14, -4
 170 0002 00AF     		add	r7, sp, #0
ARM GAS  /tmp/ccwaORKT.s 			page 5


 171              		.cfi_def_cfa_register 7
  64:main.c        **** #ifdef SEMI
  65:main.c        **** 	initialise_monitor_handles();
  66:main.c        **** 	printf("Hello world!\n");
  67:main.c        **** #endif
  68:main.c        **** 
  69:main.c        **** 	SystemClock_Config();
 172              		.loc 1 69 2
 173 0004 FFF7FEFF 		bl	SystemClock_Config
  70:main.c        **** 	SystemCoreClockUpdate();
 174              		.loc 1 70 2
 175 0008 FFF7FEFF 		bl	SystemCoreClockUpdate
  71:main.c        **** 
  72:main.c        **** 	bshal_delay_init();
 176              		.loc 1 72 2
 177 000c FFF7FEFF 		bl	bshal_delay_init
  73:main.c        **** 	bshal_delay_us(10);
 178              		.loc 1 73 2
 179 0010 0A20     		movs	r0, #10
 180 0012 FFF7FEFF 		bl	bshal_delay_us
  74:main.c        **** 	display_init();
 181              		.loc 1 74 2
 182 0016 FFF7FEFF 		bl	display_init
  75:main.c        **** 
  76:main.c        **** 	print("Hello World",1);
 183              		.loc 1 76 2
 184 001a 0121     		movs	r1, #1
 185 001c 0248     		ldr	r0, .L7
 186 001e FFF7FEFF 		bl	print
  77:main.c        **** 	framebuffer_apply();
 187              		.loc 1 77 2
 188 0022 FFF7FEFF 		bl	framebuffer_apply
 189              	.L6:
  78:main.c        **** 	while (1) {
 190              		.loc 1 78 8 discriminator 1
 191 0026 FEE7     		b	.L6
 192              	.L8:
 193              		.align	2
 194              	.L7:
 195 0028 00000000 		.word	.LC0
 196              		.cfi_endproc
 197              	.LFE69:
 199              		.text
 200              	.Letext0:
 201              		.file 2 "/usr/arm-none-eabi/include/machine/_default_types.h"
 202              		.file 3 "/usr/arm-none-eabi/include/sys/_stdint.h"
 203              		.file 4 "../../lib/libhalglue/bshal/bshal_spim.h"
 204              		.file 5 "../../lib/libhalglue/common/bshal_delay.h"
 205              		.file 6 "../../ext/STM32CubeF1/Drivers/CMSIS/Device/ST/STM32F1xx/Include/system_stm32f1xx.h"
ARM GAS  /tmp/ccwaORKT.s 			page 6

