ARM GAS  /tmp/cc1Uf0Os.s 			page 1


   1              		.cpu cortex-m3
   2              		.eabi_attribute 20, 1
   3              		.eabi_attribute 21, 1
   4              		.eabi_attribute 23, 3
   5              		.eabi_attribute 24, 1
   6              		.eabi_attribute 25, 1
   7              		.eabi_attribute 26, 1
   8              		.eabi_attribute 30, 6
   9              		.eabi_attribute 34, 1
  10              		.eabi_attribute 18, 4
  11              		.file	"rc52x_transport.c"
  12              		.text
  13              	.Ltext0:
  14              		.cfi_sections	.debug_frame
  15              		.section	.text.mfrc522_recv,"ax",%progbits
  16              		.align	1
  17              		.global	mfrc522_recv
  18              		.arch armv7-m
  19              		.syntax unified
  20              		.thumb
  21              		.thumb_func
  22              		.fpu softvfp
  24              	mfrc522_recv:
  25              	.LFB0:
  26              		.file 1 "../../lib/bsrfid/drivers/rc52x_transport.c"
   1:../../lib/bsrfid/drivers/rc52x_transport.c **** /******************************************************************************
   2:../../lib/bsrfid/drivers/rc52x_transport.c ****  File:         mfrc52x_transport.c
   3:../../lib/bsrfid/drivers/rc52x_transport.c ****  Author:       André van Schoubroeck
   4:../../lib/bsrfid/drivers/rc52x_transport.c ****  License:      MIT
   5:../../lib/bsrfid/drivers/rc52x_transport.c **** 
   6:../../lib/bsrfid/drivers/rc52x_transport.c ****  This implements the transport protocols for MFRC52x family of RFID reader ICs.
   7:../../lib/bsrfid/drivers/rc52x_transport.c **** 
   8:../../lib/bsrfid/drivers/rc52x_transport.c ****  * SPI
   9:../../lib/bsrfid/drivers/rc52x_transport.c ****  * I²C
  10:../../lib/bsrfid/drivers/rc52x_transport.c ****  * UART
  11:../../lib/bsrfid/drivers/rc52x_transport.c **** 
  12:../../lib/bsrfid/drivers/rc52x_transport.c ****  The PN512 furthermore supports, but there won't be initially supported:
  13:../../lib/bsrfid/drivers/rc52x_transport.c **** 
  14:../../lib/bsrfid/drivers/rc52x_transport.c ****  * Parallel 8080 (Intel) style
  15:../../lib/bsrfid/drivers/rc52x_transport.c ****  * Parallel 6800 (Motorola) style
  16:../../lib/bsrfid/drivers/rc52x_transport.c **** 
  17:../../lib/bsrfid/drivers/rc52x_transport.c ****  ********************************************************************************
  18:../../lib/bsrfid/drivers/rc52x_transport.c ****  MIT License
  19:../../lib/bsrfid/drivers/rc52x_transport.c **** 
  20:../../lib/bsrfid/drivers/rc52x_transport.c ****  Copyright (c) 2020 André van Schoubroeck <andre@blaatschaap.be>
  21:../../lib/bsrfid/drivers/rc52x_transport.c **** 
  22:../../lib/bsrfid/drivers/rc52x_transport.c ****  Permission is hereby granted, free of charge, to any person obtaining a copy
  23:../../lib/bsrfid/drivers/rc52x_transport.c ****  of this software and associated documentation files (the "Software"), to deal
  24:../../lib/bsrfid/drivers/rc52x_transport.c ****  in the Software without restriction, including without limitation the rights
  25:../../lib/bsrfid/drivers/rc52x_transport.c ****  to use, copy, modify, merge, publish, distribute, sublicense, and/or sell
  26:../../lib/bsrfid/drivers/rc52x_transport.c ****  copies of the Software, and to permit persons to whom the Software is
  27:../../lib/bsrfid/drivers/rc52x_transport.c ****  furnished to do so, subject to the following conditions:
  28:../../lib/bsrfid/drivers/rc52x_transport.c ****  The above copyright notice and this permission notice shall be included in all
  29:../../lib/bsrfid/drivers/rc52x_transport.c ****  copies or substantial portions of the Software.
  30:../../lib/bsrfid/drivers/rc52x_transport.c **** 
  31:../../lib/bsrfid/drivers/rc52x_transport.c ****  THE SOFTWARE IS PROVIDED "AS IS", WITHOUT WARRANTY OF ANY KIND, EXPRESS OR
  32:../../lib/bsrfid/drivers/rc52x_transport.c ****  IMPLIED, INCLUDING BUT NOT LIMITED TO THE WARRANTIES OF MERCHANTABILITY,
ARM GAS  /tmp/cc1Uf0Os.s 			page 2


  33:../../lib/bsrfid/drivers/rc52x_transport.c ****  FITNESS FOR A PARTICULAR PURPOSE AND NONINFRINGEMENT. IN NO EVENT SHALL THE
  34:../../lib/bsrfid/drivers/rc52x_transport.c ****  AUTHORS OR COPYRIGHT HOLDERS BE LIABLE FOR ANY CLAIM, DAMAGES OR OTHER
  35:../../lib/bsrfid/drivers/rc52x_transport.c ****  LIABILITY, WHETHER IN AN ACTION OF CONTRACT, TORT OR OTHERWISE, ARISING FROM,
  36:../../lib/bsrfid/drivers/rc52x_transport.c ****  OUT OF OR IN CONNECTION WITH THE SOFTWARE OR THE USE OR OTHER DEALINGS IN THE
  37:../../lib/bsrfid/drivers/rc52x_transport.c ****  SOFTWARE.
  38:../../lib/bsrfid/drivers/rc52x_transport.c ****  *******************************************************************************/
  39:../../lib/bsrfid/drivers/rc52x_transport.c **** 
  40:../../lib/bsrfid/drivers/rc52x_transport.c **** #include <stdlib.h>
  41:../../lib/bsrfid/drivers/rc52x_transport.c **** #include <stdint.h>
  42:../../lib/bsrfid/drivers/rc52x_transport.c **** #include <stdbool.h>
  43:../../lib/bsrfid/drivers/rc52x_transport.c **** 
  44:../../lib/bsrfid/drivers/rc52x_transport.c **** #include "rc52x.h"
  45:../../lib/bsrfid/drivers/rc52x_transport.c **** 
  46:../../lib/bsrfid/drivers/rc52x_transport.c **** int mfrc522_recv(rc52x_t *rc52x, uint8_t reg, uint8_t *data, size_t amount) {
  27              		.loc 1 46 77
  28              		.cfi_startproc
  29              		@ args = 0, pretend = 0, frame = 32
  30              		@ frame_needed = 1, uses_anonymous_args = 0
  31 0000 80B5     		push	{r7, lr}
  32              		.cfi_def_cfa_offset 8
  33              		.cfi_offset 7, -8
  34              		.cfi_offset 14, -4
  35 0002 88B0     		sub	sp, sp, #32
  36              		.cfi_def_cfa_offset 40
  37 0004 00AF     		add	r7, sp, #0
  38              		.cfi_def_cfa_register 7
  39 0006 F860     		str	r0, [r7, #12]
  40 0008 7A60     		str	r2, [r7, #4]
  41 000a 3B60     		str	r3, [r7]
  42 000c 0B46     		mov	r3, r1
  43 000e FB72     		strb	r3, [r7, #11]
  47:../../lib/bsrfid/drivers/rc52x_transport.c **** 	uint8_t addr;
  48:../../lib/bsrfid/drivers/rc52x_transport.c **** 	int result = 0;
  44              		.loc 1 48 6
  45 0010 0023     		movs	r3, #0
  46 0012 BB61     		str	r3, [r7, #24]
  49:../../lib/bsrfid/drivers/rc52x_transport.c **** 	if (!rc52x->transport_config)
  47              		.loc 1 49 12
  48 0014 FB68     		ldr	r3, [r7, #12]
  49 0016 5B68     		ldr	r3, [r3, #4]
  50              		.loc 1 49 5
  51 0018 002B     		cmp	r3, #0
  52 001a 02D1     		bne	.L2
  50:../../lib/bsrfid/drivers/rc52x_transport.c **** 		return -1;
  53              		.loc 1 50 10
  54 001c 4FF0FF33 		mov	r3, #-1
  55 0020 95E0     		b	.L23
  56              	.L2:
  51:../../lib/bsrfid/drivers/rc52x_transport.c **** 
  52:../../lib/bsrfid/drivers/rc52x_transport.c **** 	if (reg < 0x40) {
  57              		.loc 1 52 5
  58 0022 FB7A     		ldrb	r3, [r7, #11]	@ zero_extendqisi2
  59 0024 3F2B     		cmp	r3, #63
  60 0026 2BD8     		bhi	.L4
  53:../../lib/bsrfid/drivers/rc52x_transport.c **** 		switch (rc52x->transport) {
  61              		.loc 1 53 16
  62 0028 FB68     		ldr	r3, [r7, #12]
ARM GAS  /tmp/cc1Uf0Os.s 			page 3


  63 002a 1B78     		ldrb	r3, [r3]	@ zero_extendqisi2
  64              		.loc 1 53 3
  65 002c 032B     		cmp	r3, #3
  66 002e 18D0     		beq	.L5
  67 0030 032B     		cmp	r3, #3
  68 0032 22DC     		bgt	.L6
  69 0034 012B     		cmp	r3, #1
  70 0036 02D0     		beq	.L7
  71 0038 022B     		cmp	r3, #2
  72 003a 0FD0     		beq	.L8
  73 003c 1DE0     		b	.L6
  74              	.L7:
  75              	.LBB2:
  54:../../lib/bsrfid/drivers/rc52x_transport.c **** 		case mfrc_transport_spi:
  55:../../lib/bsrfid/drivers/rc52x_transport.c **** 			addr = (reg << MFRC522_SPI_REG_SHIFT) | MFRC522_DIR_RECV;
  76              		.loc 1 55 16
  77 003e FB7A     		ldrb	r3, [r7, #11]	@ zero_extendqisi2
  78 0040 5B00     		lsls	r3, r3, #1
  79              		.loc 1 55 42
  80 0042 5BB2     		sxtb	r3, r3
  81 0044 63F07F03 		orn	r3, r3, #127
  82 0048 5BB2     		sxtb	r3, r3
  83 004a DBB2     		uxtb	r3, r3
  84              		.loc 1 55 9
  85 004c FB74     		strb	r3, [r7, #19]
  56:../../lib/bsrfid/drivers/rc52x_transport.c **** 			memset(data, addr, amount);
  86              		.loc 1 56 4
  87 004e FB7C     		ldrb	r3, [r7, #19]	@ zero_extendqisi2
  88 0050 3A68     		ldr	r2, [r7]
  89 0052 1946     		mov	r1, r3
  90 0054 7868     		ldr	r0, [r7, #4]
  91 0056 FFF7FEFF 		bl	memset
  57:../../lib/bsrfid/drivers/rc52x_transport.c **** 			break;
  92              		.loc 1 57 4
  93 005a 5BE0     		b	.L10
  94              	.L8:
  58:../../lib/bsrfid/drivers/rc52x_transport.c **** 		case mfrc_transport_i2c:
  59:../../lib/bsrfid/drivers/rc52x_transport.c **** 			addr = reg;
  95              		.loc 1 59 9
  96 005c FB7A     		ldrb	r3, [r7, #11]
  97 005e FB74     		strb	r3, [r7, #19]
  60:../../lib/bsrfid/drivers/rc52x_transport.c **** 			break;
  98              		.loc 1 60 4
  99 0060 58E0     		b	.L10
 100              	.L5:
  61:../../lib/bsrfid/drivers/rc52x_transport.c **** 		case mfrc_transport_uart:
  62:../../lib/bsrfid/drivers/rc52x_transport.c **** 			addr = reg | MFRC522_DIR_RECV;
 101              		.loc 1 62 9
 102 0062 FB7A     		ldrb	r3, [r7, #11]
 103 0064 63F07F03 		orn	r3, r3, #127
 104 0068 DBB2     		uxtb	r3, r3
 105 006a FB74     		strb	r3, [r7, #19]
  63:../../lib/bsrfid/drivers/rc52x_transport.c **** 			memset(data, addr, amount);
 106              		.loc 1 63 4
 107 006c FB7C     		ldrb	r3, [r7, #19]	@ zero_extendqisi2
 108 006e 3A68     		ldr	r2, [r7]
 109 0070 1946     		mov	r1, r3
ARM GAS  /tmp/cc1Uf0Os.s 			page 4


 110 0072 7868     		ldr	r0, [r7, #4]
 111 0074 FFF7FEFF 		bl	memset
  64:../../lib/bsrfid/drivers/rc52x_transport.c **** 			break;
 112              		.loc 1 64 4
 113 0078 4CE0     		b	.L10
 114              	.L6:
  65:../../lib/bsrfid/drivers/rc52x_transport.c **** 		default:
  66:../../lib/bsrfid/drivers/rc52x_transport.c **** 			return -1;
 115              		.loc 1 66 11
 116 007a 4FF0FF33 		mov	r3, #-1
 117 007e 66E0     		b	.L23
 118              	.L4:
 119              	.LBE2:
 120              	.LBB3:
  67:../../lib/bsrfid/drivers/rc52x_transport.c **** 		}
  68:../../lib/bsrfid/drivers/rc52x_transport.c **** 
  69:../../lib/bsrfid/drivers/rc52x_transport.c **** 	} else {
  70:../../lib/bsrfid/drivers/rc52x_transport.c **** 		// invalid address specified... but we're adding a feature here,
  71:../../lib/bsrfid/drivers/rc52x_transport.c **** 		// We'll read sequentially read the registers
  72:../../lib/bsrfid/drivers/rc52x_transport.c **** 		if (((reg & 0x3f) + amount) > 0x40)
 121              		.loc 1 72 13
 122 0080 FB7A     		ldrb	r3, [r7, #11]	@ zero_extendqisi2
 123 0082 03F03F02 		and	r2, r3, #63
 124              		.loc 1 72 21
 125 0086 3B68     		ldr	r3, [r7]
 126 0088 1344     		add	r3, r3, r2
 127              		.loc 1 72 6
 128 008a 402B     		cmp	r3, #64
 129 008c 02D9     		bls	.L11
  73:../../lib/bsrfid/drivers/rc52x_transport.c **** 			return -1;
 130              		.loc 1 73 11
 131 008e 4FF0FF33 		mov	r3, #-1
 132 0092 5CE0     		b	.L23
 133              	.L11:
 134              	.LBB4:
  74:../../lib/bsrfid/drivers/rc52x_transport.c **** 
  75:../../lib/bsrfid/drivers/rc52x_transport.c **** 		int tmpval;
  76:../../lib/bsrfid/drivers/rc52x_transport.c **** 		for (int i = 0; i < amount; i++) {
 135              		.loc 1 76 12
 136 0094 0023     		movs	r3, #0
 137 0096 FB61     		str	r3, [r7, #28]
 138              		.loc 1 76 3
 139 0098 38E0     		b	.L12
 140              	.L20:
  77:../../lib/bsrfid/drivers/rc52x_transport.c **** 			switch (rc52x->transport) {
 141              		.loc 1 77 17
 142 009a FB68     		ldr	r3, [r7, #12]
 143 009c 1B78     		ldrb	r3, [r3]	@ zero_extendqisi2
 144              		.loc 1 77 4
 145 009e 012B     		cmp	r3, #1
 146 00a0 02D0     		beq	.L13
 147 00a2 032B     		cmp	r3, #3
 148 00a4 18D0     		beq	.L14
 149 00a6 2EE0     		b	.L15
 150              	.L13:
  78:../../lib/bsrfid/drivers/rc52x_transport.c **** 			case mfrc_transport_spi:
  79:../../lib/bsrfid/drivers/rc52x_transport.c **** 				tmpval = (((reg & 0x3f) + i) << MFRC522_SPI_REG_SHIFT)
ARM GAS  /tmp/cc1Uf0Os.s 			page 5


 151              		.loc 1 79 21
 152 00a8 FB7A     		ldrb	r3, [r7, #11]	@ zero_extendqisi2
 153 00aa 03F03F02 		and	r2, r3, #63
 154              		.loc 1 79 29
 155 00ae FB69     		ldr	r3, [r7, #28]
 156 00b0 1344     		add	r3, r3, r2
 157              		.loc 1 79 34
 158 00b2 5B00     		lsls	r3, r3, #1
 159              		.loc 1 79 12
 160 00b4 43F08003 		orr	r3, r3, #128
 161 00b8 7B61     		str	r3, [r7, #20]
  80:../../lib/bsrfid/drivers/rc52x_transport.c **** 						| MFRC522_DIR_RECV;
  81:../../lib/bsrfid/drivers/rc52x_transport.c **** 				if (i)
 162              		.loc 1 81 8
 163 00ba FB69     		ldr	r3, [r7, #28]
 164 00bc 002B     		cmp	r3, #0
 165 00be 07D0     		beq	.L16
  82:../../lib/bsrfid/drivers/rc52x_transport.c **** 					data[i - 1] = tmpval;
 166              		.loc 1 82 10
 167 00c0 FB69     		ldr	r3, [r7, #28]
 168 00c2 013B     		subs	r3, r3, #1
 169 00c4 7A68     		ldr	r2, [r7, #4]
 170 00c6 1344     		add	r3, r3, r2
 171              		.loc 1 82 18
 172 00c8 7A69     		ldr	r2, [r7, #20]
 173 00ca D2B2     		uxtb	r2, r2
 174 00cc 1A70     		strb	r2, [r3]
  83:../../lib/bsrfid/drivers/rc52x_transport.c **** 				else
  84:../../lib/bsrfid/drivers/rc52x_transport.c **** 					addr = tmpval;
  85:../../lib/bsrfid/drivers/rc52x_transport.c **** 				break;
 175              		.loc 1 85 5
 176 00ce 1AE0     		b	.L15
 177              	.L16:
  84:../../lib/bsrfid/drivers/rc52x_transport.c **** 				break;
 178              		.loc 1 84 11
 179 00d0 7B69     		ldr	r3, [r7, #20]
 180 00d2 DBB2     		uxtb	r3, r3
 181 00d4 FB74     		strb	r3, [r7, #19]
 182              		.loc 1 85 5
 183 00d6 16E0     		b	.L15
 184              	.L14:
  86:../../lib/bsrfid/drivers/rc52x_transport.c **** 			case mfrc_transport_uart:
  87:../../lib/bsrfid/drivers/rc52x_transport.c **** 				tmpval = ((reg & 0x3f) + i) | MFRC522_DIR_RECV;
 185              		.loc 1 87 20
 186 00d8 FB7A     		ldrb	r3, [r7, #11]	@ zero_extendqisi2
 187 00da 03F03F02 		and	r2, r3, #63
 188              		.loc 1 87 28
 189 00de FB69     		ldr	r3, [r7, #28]
 190 00e0 1344     		add	r3, r3, r2
 191              		.loc 1 87 12
 192 00e2 43F08003 		orr	r3, r3, #128
 193 00e6 7B61     		str	r3, [r7, #20]
  88:../../lib/bsrfid/drivers/rc52x_transport.c **** 				if (i)
 194              		.loc 1 88 8
 195 00e8 FB69     		ldr	r3, [r7, #28]
 196 00ea 002B     		cmp	r3, #0
 197 00ec 07D0     		beq	.L18
ARM GAS  /tmp/cc1Uf0Os.s 			page 6


  89:../../lib/bsrfid/drivers/rc52x_transport.c **** 					data[i - 1] = tmpval;
 198              		.loc 1 89 10
 199 00ee FB69     		ldr	r3, [r7, #28]
 200 00f0 013B     		subs	r3, r3, #1
 201 00f2 7A68     		ldr	r2, [r7, #4]
 202 00f4 1344     		add	r3, r3, r2
 203              		.loc 1 89 18
 204 00f6 7A69     		ldr	r2, [r7, #20]
 205 00f8 D2B2     		uxtb	r2, r2
 206 00fa 1A70     		strb	r2, [r3]
  90:../../lib/bsrfid/drivers/rc52x_transport.c **** 				else
  91:../../lib/bsrfid/drivers/rc52x_transport.c **** 					addr = tmpval;
  92:../../lib/bsrfid/drivers/rc52x_transport.c **** 				break;
 207              		.loc 1 92 5
 208 00fc 02E0     		b	.L24
 209              	.L18:
  91:../../lib/bsrfid/drivers/rc52x_transport.c **** 				break;
 210              		.loc 1 91 11
 211 00fe 7B69     		ldr	r3, [r7, #20]
 212 0100 DBB2     		uxtb	r3, r3
 213 0102 FB74     		strb	r3, [r7, #19]
 214              	.L24:
 215              		.loc 1 92 5
 216 0104 00BF     		nop
 217              	.L15:
  76:../../lib/bsrfid/drivers/rc52x_transport.c **** 			switch (rc52x->transport) {
 218              		.loc 1 76 32 discriminator 2
 219 0106 FB69     		ldr	r3, [r7, #28]
 220 0108 0133     		adds	r3, r3, #1
 221 010a FB61     		str	r3, [r7, #28]
 222              	.L12:
  76:../../lib/bsrfid/drivers/rc52x_transport.c **** 			switch (rc52x->transport) {
 223              		.loc 1 76 21 discriminator 1
 224 010c FB69     		ldr	r3, [r7, #28]
 225 010e 3A68     		ldr	r2, [r7]
 226 0110 9A42     		cmp	r2, r3
 227 0112 C2D8     		bhi	.L20
 228              	.L10:
 229              	.LBE4:
 230              	.LBE3:
  93:../../lib/bsrfid/drivers/rc52x_transport.c **** 			}
  94:../../lib/bsrfid/drivers/rc52x_transport.c **** 
  95:../../lib/bsrfid/drivers/rc52x_transport.c **** 		}
  96:../../lib/bsrfid/drivers/rc52x_transport.c **** 	}
  97:../../lib/bsrfid/drivers/rc52x_transport.c **** 	switch (rc52x->transport) {
 231              		.loc 1 97 15
 232 0114 FB68     		ldr	r3, [r7, #12]
 233 0116 1B78     		ldrb	r3, [r3]	@ zero_extendqisi2
 234              		.loc 1 97 2
 235 0118 012B     		cmp	r3, #1
 236 011a 16D1     		bne	.L21
 237              	.LBB5:
  98:../../lib/bsrfid/drivers/rc52x_transport.c **** 	case mfrc_transport_spi:
  99:../../lib/bsrfid/drivers/rc52x_transport.c **** 		result = bshal_spim_transmit(rc52x->transport_config, &addr, 1, true);
 238              		.loc 1 99 12
 239 011c FB68     		ldr	r3, [r7, #12]
 240 011e 5868     		ldr	r0, [r3, #4]
ARM GAS  /tmp/cc1Uf0Os.s 			page 7


 241 0120 07F11301 		add	r1, r7, #19
 242 0124 0123     		movs	r3, #1
 243 0126 0122     		movs	r2, #1
 244 0128 FFF7FEFF 		bl	bshal_spim_transmit
 245 012c B861     		str	r0, [r7, #24]
 100:../../lib/bsrfid/drivers/rc52x_transport.c **** 		if (result)
 246              		.loc 1 100 6
 247 012e BB69     		ldr	r3, [r7, #24]
 248 0130 002B     		cmp	r3, #0
 249 0132 01D0     		beq	.L22
 101:../../lib/bsrfid/drivers/rc52x_transport.c **** 			return result;
 250              		.loc 1 101 11
 251 0134 BB69     		ldr	r3, [r7, #24]
 252 0136 0AE0     		b	.L23
 253              	.L22:
 102:../../lib/bsrfid/drivers/rc52x_transport.c **** 		return bshal_spim_transceive(rc52x->transport_config, data, amount);
 254              		.loc 1 102 10
 255 0138 FB68     		ldr	r3, [r7, #12]
 256 013a 5B68     		ldr	r3, [r3, #4]
 257 013c 3A68     		ldr	r2, [r7]
 258 013e 7968     		ldr	r1, [r7, #4]
 259 0140 1846     		mov	r0, r3
 260 0142 FFF7FEFF 		bl	bshal_spim_transceive
 261 0146 0346     		mov	r3, r0
 262 0148 01E0     		b	.L23
 263              	.L21:
 103:../../lib/bsrfid/drivers/rc52x_transport.c **** 		break;
 104:../../lib/bsrfid/drivers/rc52x_transport.c **** 	default:
 105:../../lib/bsrfid/drivers/rc52x_transport.c **** 		return -1;
 264              		.loc 1 105 10
 265 014a 4FF0FF33 		mov	r3, #-1
 266              	.L23:
 267              	.LBE5:
 106:../../lib/bsrfid/drivers/rc52x_transport.c **** 	}
 107:../../lib/bsrfid/drivers/rc52x_transport.c **** }
 268              		.loc 1 107 1 discriminator 1
 269 014e 1846     		mov	r0, r3
 270 0150 2037     		adds	r7, r7, #32
 271              		.cfi_def_cfa_offset 8
 272 0152 BD46     		mov	sp, r7
 273              		.cfi_def_cfa_register 13
 274              		@ sp needed
 275 0154 80BD     		pop	{r7, pc}
 276              		.cfi_endproc
 277              	.LFE0:
 279              		.section	.text.mfrc522_send,"ax",%progbits
 280              		.align	1
 281              		.global	mfrc522_send
 282              		.syntax unified
 283              		.thumb
 284              		.thumb_func
 285              		.fpu softvfp
 287              	mfrc522_send:
 288              	.LFB1:
 108:../../lib/bsrfid/drivers/rc52x_transport.c **** 
 109:../../lib/bsrfid/drivers/rc52x_transport.c **** int mfrc522_send(rc52x_t *rc52x, uint8_t reg, uint8_t *data, size_t amount) {
 289              		.loc 1 109 77
ARM GAS  /tmp/cc1Uf0Os.s 			page 8


 290              		.cfi_startproc
 291              		@ args = 0, pretend = 0, frame = 24
 292              		@ frame_needed = 1, uses_anonymous_args = 0
 293 0000 80B5     		push	{r7, lr}
 294              		.cfi_def_cfa_offset 8
 295              		.cfi_offset 7, -8
 296              		.cfi_offset 14, -4
 297 0002 86B0     		sub	sp, sp, #24
 298              		.cfi_def_cfa_offset 32
 299 0004 00AF     		add	r7, sp, #0
 300              		.cfi_def_cfa_register 7
 301 0006 F860     		str	r0, [r7, #12]
 302 0008 7A60     		str	r2, [r7, #4]
 303 000a 3B60     		str	r3, [r7]
 304 000c 0B46     		mov	r3, r1
 305 000e FB72     		strb	r3, [r7, #11]
 110:../../lib/bsrfid/drivers/rc52x_transport.c **** 	int result = 0;
 306              		.loc 1 110 6
 307 0010 0023     		movs	r3, #0
 308 0012 7B61     		str	r3, [r7, #20]
 111:../../lib/bsrfid/drivers/rc52x_transport.c **** 	uint8_t addr;
 112:../../lib/bsrfid/drivers/rc52x_transport.c **** 	if (!rc52x->transport_config)
 309              		.loc 1 112 12
 310 0014 FB68     		ldr	r3, [r7, #12]
 311 0016 5B68     		ldr	r3, [r3, #4]
 312              		.loc 1 112 5
 313 0018 002B     		cmp	r3, #0
 314 001a 02D1     		bne	.L26
 113:../../lib/bsrfid/drivers/rc52x_transport.c **** 		return -1;
 315              		.loc 1 113 10
 316 001c 4FF0FF33 		mov	r3, #-1
 317 0020 31E0     		b	.L34
 318              	.L26:
 114:../../lib/bsrfid/drivers/rc52x_transport.c **** 
 115:../../lib/bsrfid/drivers/rc52x_transport.c **** 	switch (rc52x->transport) {
 319              		.loc 1 115 15
 320 0022 FB68     		ldr	r3, [r7, #12]
 321 0024 1B78     		ldrb	r3, [r3]	@ zero_extendqisi2
 322              		.loc 1 115 2
 323 0026 032B     		cmp	r3, #3
 324 0028 25D0     		beq	.L28
 325 002a 032B     		cmp	r3, #3
 326 002c 26DC     		bgt	.L29
 327 002e 012B     		cmp	r3, #1
 328 0030 02D0     		beq	.L30
 329 0032 022B     		cmp	r3, #2
 330 0034 1CD0     		beq	.L31
 331 0036 21E0     		b	.L29
 332              	.L30:
 333              	.LBB6:
 116:../../lib/bsrfid/drivers/rc52x_transport.c **** 	case mfrc_transport_spi:
 117:../../lib/bsrfid/drivers/rc52x_transport.c **** 		addr = (reg << MFRC522_SPI_REG_SHIFT) | MFRC522_DIR_SEND;
 334              		.loc 1 117 41
 335 0038 FB7A     		ldrb	r3, [r7, #11]
 336 003a 5B00     		lsls	r3, r3, #1
 337 003c DBB2     		uxtb	r3, r3
 338              		.loc 1 117 8
ARM GAS  /tmp/cc1Uf0Os.s 			page 9


 339 003e FB74     		strb	r3, [r7, #19]
 118:../../lib/bsrfid/drivers/rc52x_transport.c **** 		result = bshal_spim_transmit(rc52x->transport_config, &addr, 1, true);
 340              		.loc 1 118 12
 341 0040 FB68     		ldr	r3, [r7, #12]
 342 0042 5868     		ldr	r0, [r3, #4]
 343 0044 07F11301 		add	r1, r7, #19
 344 0048 0123     		movs	r3, #1
 345 004a 0122     		movs	r2, #1
 346 004c FFF7FEFF 		bl	bshal_spim_transmit
 347 0050 7861     		str	r0, [r7, #20]
 119:../../lib/bsrfid/drivers/rc52x_transport.c **** 		if (result)
 348              		.loc 1 119 6
 349 0052 7B69     		ldr	r3, [r7, #20]
 350 0054 002B     		cmp	r3, #0
 351 0056 01D0     		beq	.L32
 120:../../lib/bsrfid/drivers/rc52x_transport.c **** 			return result;
 352              		.loc 1 120 11
 353 0058 7B69     		ldr	r3, [r7, #20]
 354 005a 14E0     		b	.L34
 355              	.L32:
 121:../../lib/bsrfid/drivers/rc52x_transport.c **** 		result = bshal_spim_transmit(rc52x->transport_config, data, amount,
 356              		.loc 1 121 12
 357 005c FB68     		ldr	r3, [r7, #12]
 358 005e 5868     		ldr	r0, [r3, #4]
 359 0060 0023     		movs	r3, #0
 360 0062 3A68     		ldr	r2, [r7]
 361 0064 7968     		ldr	r1, [r7, #4]
 362 0066 FFF7FEFF 		bl	bshal_spim_transmit
 363 006a 7861     		str	r0, [r7, #20]
 122:../../lib/bsrfid/drivers/rc52x_transport.c **** 				false);
 123:../../lib/bsrfid/drivers/rc52x_transport.c **** 		return result;
 364              		.loc 1 123 10
 365 006c 7B69     		ldr	r3, [r7, #20]
 366 006e 0AE0     		b	.L34
 367              	.L31:
 124:../../lib/bsrfid/drivers/rc52x_transport.c **** 		break;
 125:../../lib/bsrfid/drivers/rc52x_transport.c **** 	case mfrc_transport_i2c:
 126:../../lib/bsrfid/drivers/rc52x_transport.c **** 		addr = reg;
 368              		.loc 1 126 8
 369 0070 FB7A     		ldrb	r3, [r7, #11]
 370 0072 FB74     		strb	r3, [r7, #19]
 127:../../lib/bsrfid/drivers/rc52x_transport.c **** 		break;
 371              		.loc 1 127 3
 372 0074 05E0     		b	.L33
 373              	.L28:
 128:../../lib/bsrfid/drivers/rc52x_transport.c **** 	case mfrc_transport_uart:
 129:../../lib/bsrfid/drivers/rc52x_transport.c **** 		addr = reg | MFRC522_DIR_SEND;
 374              		.loc 1 129 8
 375 0076 FB7A     		ldrb	r3, [r7, #11]
 376 0078 FB74     		strb	r3, [r7, #19]
 130:../../lib/bsrfid/drivers/rc52x_transport.c **** 		break;
 377              		.loc 1 130 3
 378 007a 02E0     		b	.L33
 379              	.L29:
 131:../../lib/bsrfid/drivers/rc52x_transport.c **** 	default:
 132:../../lib/bsrfid/drivers/rc52x_transport.c **** 		return -1;
 380              		.loc 1 132 10
ARM GAS  /tmp/cc1Uf0Os.s 			page 10


 381 007c 4FF0FF33 		mov	r3, #-1
 382 0080 01E0     		b	.L34
 383              	.L33:
 384              	.LBE6:
 133:../../lib/bsrfid/drivers/rc52x_transport.c **** 	}
 134:../../lib/bsrfid/drivers/rc52x_transport.c **** 
 135:../../lib/bsrfid/drivers/rc52x_transport.c **** 	return -1;
 385              		.loc 1 135 9
 386 0082 4FF0FF33 		mov	r3, #-1
 387              	.L34:
 136:../../lib/bsrfid/drivers/rc52x_transport.c **** }
 388              		.loc 1 136 1 discriminator 1
 389 0086 1846     		mov	r0, r3
 390 0088 1837     		adds	r7, r7, #24
 391              		.cfi_def_cfa_offset 8
 392 008a BD46     		mov	sp, r7
 393              		.cfi_def_cfa_register 13
 394              		@ sp needed
 395 008c 80BD     		pop	{r7, pc}
 396              		.cfi_endproc
 397              	.LFE1:
 399              		.section	.text.rc52x_get_reg8,"ax",%progbits
 400              		.align	1
 401              		.global	rc52x_get_reg8
 402              		.syntax unified
 403              		.thumb
 404              		.thumb_func
 405              		.fpu softvfp
 407              	rc52x_get_reg8:
 408              	.LFB2:
 137:../../lib/bsrfid/drivers/rc52x_transport.c **** 
 138:../../lib/bsrfid/drivers/rc52x_transport.c **** int rc52x_get_reg8(rc52x_t *rc52x, uint8_t reg, uint8_t *value) {
 409              		.loc 1 138 65
 410              		.cfi_startproc
 411              		@ args = 0, pretend = 0, frame = 16
 412              		@ frame_needed = 1, uses_anonymous_args = 0
 413 0000 80B5     		push	{r7, lr}
 414              		.cfi_def_cfa_offset 8
 415              		.cfi_offset 7, -8
 416              		.cfi_offset 14, -4
 417 0002 84B0     		sub	sp, sp, #16
 418              		.cfi_def_cfa_offset 24
 419 0004 00AF     		add	r7, sp, #0
 420              		.cfi_def_cfa_register 7
 421 0006 F860     		str	r0, [r7, #12]
 422 0008 0B46     		mov	r3, r1
 423 000a 7A60     		str	r2, [r7, #4]
 424 000c FB72     		strb	r3, [r7, #11]
 139:../../lib/bsrfid/drivers/rc52x_transport.c **** 	return mfrc522_recv(rc52x, reg, value, 1);
 425              		.loc 1 139 9
 426 000e F97A     		ldrb	r1, [r7, #11]	@ zero_extendqisi2
 427 0010 0123     		movs	r3, #1
 428 0012 7A68     		ldr	r2, [r7, #4]
 429 0014 F868     		ldr	r0, [r7, #12]
 430 0016 FFF7FEFF 		bl	mfrc522_recv
 431 001a 0346     		mov	r3, r0
 140:../../lib/bsrfid/drivers/rc52x_transport.c **** }
ARM GAS  /tmp/cc1Uf0Os.s 			page 11


 432              		.loc 1 140 1
 433 001c 1846     		mov	r0, r3
 434 001e 1037     		adds	r7, r7, #16
 435              		.cfi_def_cfa_offset 8
 436 0020 BD46     		mov	sp, r7
 437              		.cfi_def_cfa_register 13
 438              		@ sp needed
 439 0022 80BD     		pop	{r7, pc}
 440              		.cfi_endproc
 441              	.LFE2:
 443              		.section	.text.rc52x_set_reg8,"ax",%progbits
 444              		.align	1
 445              		.global	rc52x_set_reg8
 446              		.syntax unified
 447              		.thumb
 448              		.thumb_func
 449              		.fpu softvfp
 451              	rc52x_set_reg8:
 452              	.LFB3:
 141:../../lib/bsrfid/drivers/rc52x_transport.c **** 
 142:../../lib/bsrfid/drivers/rc52x_transport.c **** int rc52x_set_reg8(rc52x_t *rc52x, uint8_t reg, uint8_t value) {
 453              		.loc 1 142 64
 454              		.cfi_startproc
 455              		@ args = 0, pretend = 0, frame = 8
 456              		@ frame_needed = 1, uses_anonymous_args = 0
 457 0000 80B5     		push	{r7, lr}
 458              		.cfi_def_cfa_offset 8
 459              		.cfi_offset 7, -8
 460              		.cfi_offset 14, -4
 461 0002 82B0     		sub	sp, sp, #8
 462              		.cfi_def_cfa_offset 16
 463 0004 00AF     		add	r7, sp, #0
 464              		.cfi_def_cfa_register 7
 465 0006 7860     		str	r0, [r7, #4]
 466 0008 0B46     		mov	r3, r1
 467 000a FB70     		strb	r3, [r7, #3]
 468 000c 1346     		mov	r3, r2
 469 000e BB70     		strb	r3, [r7, #2]
 143:../../lib/bsrfid/drivers/rc52x_transport.c **** 	return mfrc522_send(rc52x, reg, &value, 1);
 470              		.loc 1 143 9
 471 0010 BA1C     		adds	r2, r7, #2
 472 0012 F978     		ldrb	r1, [r7, #3]	@ zero_extendqisi2
 473 0014 0123     		movs	r3, #1
 474 0016 7868     		ldr	r0, [r7, #4]
 475 0018 FFF7FEFF 		bl	mfrc522_send
 476 001c 0346     		mov	r3, r0
 144:../../lib/bsrfid/drivers/rc52x_transport.c **** }
 477              		.loc 1 144 1
 478 001e 1846     		mov	r0, r3
 479 0020 0837     		adds	r7, r7, #8
 480              		.cfi_def_cfa_offset 8
 481 0022 BD46     		mov	sp, r7
 482              		.cfi_def_cfa_register 13
 483              		@ sp needed
 484 0024 80BD     		pop	{r7, pc}
 485              		.cfi_endproc
 486              	.LFE3:
ARM GAS  /tmp/cc1Uf0Os.s 			page 12


 488              		.section	.text.rc52x_or_reg8,"ax",%progbits
 489              		.align	1
 490              		.global	rc52x_or_reg8
 491              		.syntax unified
 492              		.thumb
 493              		.thumb_func
 494              		.fpu softvfp
 496              	rc52x_or_reg8:
 497              	.LFB4:
 145:../../lib/bsrfid/drivers/rc52x_transport.c **** 
 146:../../lib/bsrfid/drivers/rc52x_transport.c **** int rc52x_or_reg8(rc52x_t *rc52x, uint8_t reg, uint8_t value) {
 498              		.loc 1 146 63
 499              		.cfi_startproc
 500              		@ args = 0, pretend = 0, frame = 16
 501              		@ frame_needed = 1, uses_anonymous_args = 0
 502 0000 80B5     		push	{r7, lr}
 503              		.cfi_def_cfa_offset 8
 504              		.cfi_offset 7, -8
 505              		.cfi_offset 14, -4
 506 0002 84B0     		sub	sp, sp, #16
 507              		.cfi_def_cfa_offset 24
 508 0004 00AF     		add	r7, sp, #0
 509              		.cfi_def_cfa_register 7
 510 0006 7860     		str	r0, [r7, #4]
 511 0008 0B46     		mov	r3, r1
 512 000a FB70     		strb	r3, [r7, #3]
 513 000c 1346     		mov	r3, r2
 514 000e BB70     		strb	r3, [r7, #2]
 147:../../lib/bsrfid/drivers/rc52x_transport.c **** 	uint8_t tmpval;
 148:../../lib/bsrfid/drivers/rc52x_transport.c **** 	int result;
 149:../../lib/bsrfid/drivers/rc52x_transport.c **** 	result = rc52x_get_reg8(rc52x, reg, &tmpval);
 515              		.loc 1 149 11
 516 0010 07F10B02 		add	r2, r7, #11
 517 0014 FB78     		ldrb	r3, [r7, #3]	@ zero_extendqisi2
 518 0016 1946     		mov	r1, r3
 519 0018 7868     		ldr	r0, [r7, #4]
 520 001a FFF7FEFF 		bl	rc52x_get_reg8
 521 001e F860     		str	r0, [r7, #12]
 150:../../lib/bsrfid/drivers/rc52x_transport.c **** 	if (result)
 522              		.loc 1 150 5
 523 0020 FB68     		ldr	r3, [r7, #12]
 524 0022 002B     		cmp	r3, #0
 525 0024 01D0     		beq	.L40
 151:../../lib/bsrfid/drivers/rc52x_transport.c **** 		return result;
 526              		.loc 1 151 10
 527 0026 FB68     		ldr	r3, [r7, #12]
 528 0028 0BE0     		b	.L42
 529              	.L40:
 152:../../lib/bsrfid/drivers/rc52x_transport.c **** 	tmpval |= value;
 530              		.loc 1 152 9
 531 002a FA7A     		ldrb	r2, [r7, #11]	@ zero_extendqisi2
 532 002c BB78     		ldrb	r3, [r7, #2]
 533 002e 1343     		orrs	r3, r3, r2
 534 0030 DBB2     		uxtb	r3, r3
 535 0032 FB72     		strb	r3, [r7, #11]
 153:../../lib/bsrfid/drivers/rc52x_transport.c **** 	return rc52x_set_reg8(rc52x, reg, tmpval);
 536              		.loc 1 153 9
ARM GAS  /tmp/cc1Uf0Os.s 			page 13


 537 0034 FA7A     		ldrb	r2, [r7, #11]	@ zero_extendqisi2
 538 0036 FB78     		ldrb	r3, [r7, #3]	@ zero_extendqisi2
 539 0038 1946     		mov	r1, r3
 540 003a 7868     		ldr	r0, [r7, #4]
 541 003c FFF7FEFF 		bl	rc52x_set_reg8
 542 0040 0346     		mov	r3, r0
 543              	.L42:
 154:../../lib/bsrfid/drivers/rc52x_transport.c **** }
 544              		.loc 1 154 1 discriminator 1
 545 0042 1846     		mov	r0, r3
 546 0044 1037     		adds	r7, r7, #16
 547              		.cfi_def_cfa_offset 8
 548 0046 BD46     		mov	sp, r7
 549              		.cfi_def_cfa_register 13
 550              		@ sp needed
 551 0048 80BD     		pop	{r7, pc}
 552              		.cfi_endproc
 553              	.LFE4:
 555              		.section	.text.rc52x_and_reg8,"ax",%progbits
 556              		.align	1
 557              		.global	rc52x_and_reg8
 558              		.syntax unified
 559              		.thumb
 560              		.thumb_func
 561              		.fpu softvfp
 563              	rc52x_and_reg8:
 564              	.LFB5:
 155:../../lib/bsrfid/drivers/rc52x_transport.c **** 
 156:../../lib/bsrfid/drivers/rc52x_transport.c **** int rc52x_and_reg8(rc52x_t *rc52x, uint8_t reg, uint8_t value) {
 565              		.loc 1 156 64
 566              		.cfi_startproc
 567              		@ args = 0, pretend = 0, frame = 16
 568              		@ frame_needed = 1, uses_anonymous_args = 0
 569 0000 80B5     		push	{r7, lr}
 570              		.cfi_def_cfa_offset 8
 571              		.cfi_offset 7, -8
 572              		.cfi_offset 14, -4
 573 0002 84B0     		sub	sp, sp, #16
 574              		.cfi_def_cfa_offset 24
 575 0004 00AF     		add	r7, sp, #0
 576              		.cfi_def_cfa_register 7
 577 0006 7860     		str	r0, [r7, #4]
 578 0008 0B46     		mov	r3, r1
 579 000a FB70     		strb	r3, [r7, #3]
 580 000c 1346     		mov	r3, r2
 581 000e BB70     		strb	r3, [r7, #2]
 157:../../lib/bsrfid/drivers/rc52x_transport.c **** 	uint8_t tmpval;
 158:../../lib/bsrfid/drivers/rc52x_transport.c **** 	int result;
 159:../../lib/bsrfid/drivers/rc52x_transport.c **** 	result = rc52x_get_reg8(rc52x, reg, &tmpval);
 582              		.loc 1 159 11
 583 0010 07F10B02 		add	r2, r7, #11
 584 0014 FB78     		ldrb	r3, [r7, #3]	@ zero_extendqisi2
 585 0016 1946     		mov	r1, r3
 586 0018 7868     		ldr	r0, [r7, #4]
 587 001a FFF7FEFF 		bl	rc52x_get_reg8
 588 001e F860     		str	r0, [r7, #12]
 160:../../lib/bsrfid/drivers/rc52x_transport.c **** 	if (result)
ARM GAS  /tmp/cc1Uf0Os.s 			page 14


 589              		.loc 1 160 5
 590 0020 FB68     		ldr	r3, [r7, #12]
 591 0022 002B     		cmp	r3, #0
 592 0024 01D0     		beq	.L44
 161:../../lib/bsrfid/drivers/rc52x_transport.c **** 		return result;
 593              		.loc 1 161 10
 594 0026 FB68     		ldr	r3, [r7, #12]
 595 0028 0BE0     		b	.L46
 596              	.L44:
 162:../../lib/bsrfid/drivers/rc52x_transport.c **** 	tmpval &= value;
 597              		.loc 1 162 9
 598 002a FA7A     		ldrb	r2, [r7, #11]	@ zero_extendqisi2
 599 002c BB78     		ldrb	r3, [r7, #2]
 600 002e 1340     		ands	r3, r3, r2
 601 0030 DBB2     		uxtb	r3, r3
 602 0032 FB72     		strb	r3, [r7, #11]
 163:../../lib/bsrfid/drivers/rc52x_transport.c **** 	return rc52x_set_reg8(rc52x, reg, tmpval);
 603              		.loc 1 163 9
 604 0034 FA7A     		ldrb	r2, [r7, #11]	@ zero_extendqisi2
 605 0036 FB78     		ldrb	r3, [r7, #3]	@ zero_extendqisi2
 606 0038 1946     		mov	r1, r3
 607 003a 7868     		ldr	r0, [r7, #4]
 608 003c FFF7FEFF 		bl	rc52x_set_reg8
 609 0040 0346     		mov	r3, r0
 610              	.L46:
 164:../../lib/bsrfid/drivers/rc52x_transport.c **** }
 611              		.loc 1 164 1 discriminator 1
 612 0042 1846     		mov	r0, r3
 613 0044 1037     		adds	r7, r7, #16
 614              		.cfi_def_cfa_offset 8
 615 0046 BD46     		mov	sp, r7
 616              		.cfi_def_cfa_register 13
 617              		@ sp needed
 618 0048 80BD     		pop	{r7, pc}
 619              		.cfi_endproc
 620              	.LFE5:
 622              		.text
 623              	.Letext0:
 624              		.file 2 "/usr/lib/gcc/arm-none-eabi/11.2.0/include/stddef.h"
 625              		.file 3 "/usr/arm-none-eabi/include/machine/_default_types.h"
 626              		.file 4 "/usr/arm-none-eabi/include/sys/_stdint.h"
 627              		.file 5 "../../lib/bsrfid/drivers/pdc.h"
 628              		.file 6 "../../lib/bsrfid/drivers/rc52x.h"
 629              		.file 7 "<built-in>"
ARM GAS  /tmp/cc1Uf0Os.s 			page 15

