ARM GAS  /tmp/ccNAQRpi.s 			page 1


   1              		.cpu cortex-m3
   2              		.eabi_attribute 20, 1
   3              		.eabi_attribute 21, 1
   4              		.eabi_attribute 23, 3
   5              		.eabi_attribute 24, 1
   6              		.eabi_attribute 25, 1
   7              		.eabi_attribute 26, 1
   8              		.eabi_attribute 30, 6
   9              		.eabi_attribute 34, 1
  10              		.eabi_attribute 18, 4
  11              		.file	"u8x8_spi.c"
  12              		.text
  13              	.Ltext0:
  14              		.cfi_sections	.debug_frame
  15              		.section	.text.bshal_u8x8_byte_spi,"ax",%progbits
  16              		.align	1
  17              		.global	bshal_u8x8_byte_spi
  18              		.arch armv7-m
  19              		.syntax unified
  20              		.thumb
  21              		.thumb_func
  22              		.fpu softvfp
  24              	bshal_u8x8_byte_spi:
  25              	.LFB65:
  26              		.file 1 "../../lib/libhalglue/bshal/extlib/u8x8_spi.c"
   1:../../lib/libhalglue/bshal/extlib/u8x8_spi.c **** 
   2:../../lib/libhalglue/bshal/extlib/u8x8_spi.c **** 
   3:../../lib/libhalglue/bshal/extlib/u8x8_spi.c **** #include "u8x8_spi.h"
   4:../../lib/libhalglue/bshal/extlib/u8x8_spi.c **** 
   5:../../lib/libhalglue/bshal/extlib/u8x8_spi.c **** #include "bshal_spim.h"
   6:../../lib/libhalglue/bshal/extlib/u8x8_spi.c **** #include "bshal_gpio.h"
   7:../../lib/libhalglue/bshal/extlib/u8x8_spi.c **** 
   8:../../lib/libhalglue/bshal/extlib/u8x8_spi.c **** 
   9:../../lib/libhalglue/bshal/extlib/u8x8_spi.c **** #ifndef U8X8_WITH_USER_PTR
  10:../../lib/libhalglue/bshal/extlib/u8x8_spi.c **** #warning please use U8X8_WITH_USER_PTR
  11:../../lib/libhalglue/bshal/extlib/u8x8_spi.c **** static bshal_spim_t *mp_spim;
  12:../../lib/libhalglue/bshal/extlib/u8x8_spi.c **** static u8g2_t *mp_u8g2;
  13:../../lib/libhalglue/bshal/extlib/u8x8_spi.c **** void bshal_u8x8_spi_init(u8g2_t *p_u8g2, bshal_spim_t *p_spim) {
  14:../../lib/libhalglue/bshal/extlib/u8x8_spi.c **** 	mp_u8g2 = p_u8g2;
  15:../../lib/libhalglue/bshal/extlib/u8x8_spi.c **** 	mp_spim = p_spim;
  16:../../lib/libhalglue/bshal/extlib/u8x8_spi.c **** }
  17:../../lib/libhalglue/bshal/extlib/u8x8_spi.c **** #endif
  18:../../lib/libhalglue/bshal/extlib/u8x8_spi.c **** //----------------------------------------------------------------------//
  19:../../lib/libhalglue/bshal/extlib/u8x8_spi.c **** // https://github.com/olikraus/u8g2/wiki/Porting-to-new-MCU-platform    //
  20:../../lib/libhalglue/bshal/extlib/u8x8_spi.c **** //----------------------------------------------------------------------//
  21:../../lib/libhalglue/bshal/extlib/u8x8_spi.c **** 
  22:../../lib/libhalglue/bshal/extlib/u8x8_spi.c **** 
  23:../../lib/libhalglue/bshal/extlib/u8x8_spi.c **** uint8_t bshal_u8x8_byte_spi(u8x8_t *u8x8, uint8_t msg, uint8_t arg_int,
  24:../../lib/libhalglue/bshal/extlib/u8x8_spi.c **** 		void *arg_ptr) {
  27              		.loc 1 24 18
  28              		.cfi_startproc
  29              		@ args = 0, pretend = 0, frame = 24
  30              		@ frame_needed = 1, uses_anonymous_args = 0
  31 0000 90B5     		push	{r4, r7, lr}
  32              		.cfi_def_cfa_offset 12
  33              		.cfi_offset 4, -12
  34              		.cfi_offset 7, -8
ARM GAS  /tmp/ccNAQRpi.s 			page 2


  35              		.cfi_offset 14, -4
  36 0002 87B0     		sub	sp, sp, #28
  37              		.cfi_def_cfa_offset 40
  38 0004 00AF     		add	r7, sp, #0
  39              		.cfi_def_cfa_register 7
  40 0006 F860     		str	r0, [r7, #12]
  41 0008 7B60     		str	r3, [r7, #4]
  42 000a 0B46     		mov	r3, r1
  43 000c FB72     		strb	r3, [r7, #11]
  44 000e 1346     		mov	r3, r2
  45 0010 BB72     		strb	r3, [r7, #10]
  25:../../lib/libhalglue/bshal/extlib/u8x8_spi.c ****   
  26:../../lib/libhalglue/bshal/extlib/u8x8_spi.c **** #ifdef U8X8_WITH_USER_PTR
  27:../../lib/libhalglue/bshal/extlib/u8x8_spi.c **** 	bshal_spim_t *p_spim = u8x8->user_ptr;
  46              		.loc 1 27 16
  47 0012 FB68     		ldr	r3, [r7, #12]
  48 0014 DB6A     		ldr	r3, [r3, #44]
  49 0016 7B61     		str	r3, [r7, #20]
  28:../../lib/libhalglue/bshal/extlib/u8x8_spi.c **** #else
  29:../../lib/libhalglue/bshal/extlib/u8x8_spi.c **** 	bshal_spim_t *p_spim = mp_spim;
  30:../../lib/libhalglue/bshal/extlib/u8x8_spi.c **** #endif
  31:../../lib/libhalglue/bshal/extlib/u8x8_spi.c **** 
  32:../../lib/libhalglue/bshal/extlib/u8x8_spi.c **** 
  33:../../lib/libhalglue/bshal/extlib/u8x8_spi.c ****   switch(msg) {
  50              		.loc 1 33 3
  51 0018 FB7A     		ldrb	r3, [r7, #11]	@ zero_extendqisi2
  52 001a 143B     		subs	r3, r3, #20
  53 001c 0C2B     		cmp	r3, #12
  54 001e 70D8     		bhi	.L2
  55 0020 01A2     		adr	r2, .L4
  56 0022 52F823F0 		ldr	pc, [r2, r3, lsl #2]
  57 0026 00BF     		.p2align 2
  58              	.L4:
  59 0028 6B000000 		.word	.L8+1
  60 002c 03010000 		.word	.L2+1
  61 0030 03010000 		.word	.L2+1
  62 0034 5D000000 		.word	.L7+1
  63 0038 93000000 		.word	.L6+1
  64 003c DB000000 		.word	.L5+1
  65 0040 03010000 		.word	.L2+1
  66 0044 03010000 		.word	.L2+1
  67 0048 03010000 		.word	.L2+1
  68 004c 03010000 		.word	.L2+1
  69 0050 03010000 		.word	.L2+1
  70 0054 03010000 		.word	.L2+1
  71 0058 81000000 		.word	.L3+1
  72              		.p2align 1
  73              	.L7:
  74              	.LBB2:
  34:../../lib/libhalglue/bshal/extlib/u8x8_spi.c ****     case U8X8_MSG_BYTE_SEND:
  35:../../lib/libhalglue/bshal/extlib/u8x8_spi.c **** 		// arg_prt = data 
  36:../../lib/libhalglue/bshal/extlib/u8x8_spi.c **** 		// arg_int = size
  37:../../lib/libhalglue/bshal/extlib/u8x8_spi.c **** 		bshal_spim_transmit	(p_spim, arg_ptr, arg_int, false); 
  75              		.loc 1 37 3
  76 005c BA7A     		ldrb	r2, [r7, #10]	@ zero_extendqisi2
  77 005e 0023     		movs	r3, #0
  78 0060 7968     		ldr	r1, [r7, #4]
ARM GAS  /tmp/ccNAQRpi.s 			page 3


  79 0062 7869     		ldr	r0, [r7, #20]
  80 0064 FFF7FEFF 		bl	bshal_spim_transmit
  38:../../lib/libhalglue/bshal/extlib/u8x8_spi.c ****       break;
  81              		.loc 1 38 7
  82 0068 4DE0     		b	.L9
  83              	.L8:
  39:../../lib/libhalglue/bshal/extlib/u8x8_spi.c ****     case U8X8_MSG_BYTE_INIT:
  40:../../lib/libhalglue/bshal/extlib/u8x8_spi.c **** 		bshal_gpio_write_pin(p_spim->nss_pin, u8x8->display_info->chip_disable_level);
  84              		.loc 1 40 30
  85 006a 7B69     		ldr	r3, [r7, #20]
  86 006c DB79     		ldrb	r3, [r3, #7]	@ zero_extendqisi2
  87              		.loc 1 40 3
  88 006e 1A46     		mov	r2, r3
  89              		.loc 1 40 45
  90 0070 FB68     		ldr	r3, [r7, #12]
  91 0072 1B68     		ldr	r3, [r3]
  92              		.loc 1 40 59
  93 0074 5B78     		ldrb	r3, [r3, #1]	@ zero_extendqisi2
  94              		.loc 1 40 3
  95 0076 1946     		mov	r1, r3
  96 0078 1046     		mov	r0, r2
  97 007a FFF7FEFF 		bl	bshal_gpio_write_pin
  41:../../lib/libhalglue/bshal/extlib/u8x8_spi.c ****       break;
  98              		.loc 1 41 7
  99 007e 42E0     		b	.L9
 100              	.L3:
  42:../../lib/libhalglue/bshal/extlib/u8x8_spi.c ****     case U8X8_MSG_BYTE_SET_DC:
  43:../../lib/libhalglue/bshal/extlib/u8x8_spi.c **** 		bshal_gpio_write_pin(p_spim->ncd_pin, arg_int);
 101              		.loc 1 43 30
 102 0080 7B69     		ldr	r3, [r7, #20]
 103 0082 1B7A     		ldrb	r3, [r3, #8]	@ zero_extendqisi2
 104              		.loc 1 43 3
 105 0084 1A46     		mov	r2, r3
 106 0086 BB7A     		ldrb	r3, [r7, #10]	@ zero_extendqisi2
 107 0088 1946     		mov	r1, r3
 108 008a 1046     		mov	r0, r2
 109 008c FFF7FEFF 		bl	bshal_gpio_write_pin
  44:../../lib/libhalglue/bshal/extlib/u8x8_spi.c ****       break;
 110              		.loc 1 44 7
 111 0090 39E0     		b	.L9
 112              	.L6:
  45:../../lib/libhalglue/bshal/extlib/u8x8_spi.c ****     case U8X8_MSG_BYTE_START_TRANSFER:
  46:../../lib/libhalglue/bshal/extlib/u8x8_spi.c **** 		p_spim->frequency = u8x8->display_info->sck_clock_hz; 
 113              		.loc 1 46 27
 114 0092 FB68     		ldr	r3, [r7, #12]
 115 0094 1B68     		ldr	r3, [r3]
 116              		.loc 1 46 41
 117 0096 9A68     		ldr	r2, [r3, #8]
 118              		.loc 1 46 21
 119 0098 7B69     		ldr	r3, [r7, #20]
 120 009a 1A61     		str	r2, [r3, #16]
  47:../../lib/libhalglue/bshal/extlib/u8x8_spi.c **** 		p_spim->bit_order = 0; //MSB
 121              		.loc 1 47 21
 122 009c 7B69     		ldr	r3, [r7, #20]
 123 009e 0022     		movs	r2, #0
 124 00a0 1A73     		strb	r2, [r3, #12]
  48:../../lib/libhalglue/bshal/extlib/u8x8_spi.c **** 		p_spim->mode = u8x8->display_info->spi_mode;
ARM GAS  /tmp/ccNAQRpi.s 			page 4


 125              		.loc 1 48 22
 126 00a2 FB68     		ldr	r3, [r7, #12]
 127 00a4 1B68     		ldr	r3, [r3]
 128              		.loc 1 48 36
 129 00a6 1A7B     		ldrb	r2, [r3, #12]	@ zero_extendqisi2
 130              		.loc 1 48 16
 131 00a8 7B69     		ldr	r3, [r7, #20]
 132 00aa DA72     		strb	r2, [r3, #11]
  49:../../lib/libhalglue/bshal/extlib/u8x8_spi.c **** 		bshal_spim_init(p_spim);
 133              		.loc 1 49 3
 134 00ac 7869     		ldr	r0, [r7, #20]
 135 00ae FFF7FEFF 		bl	bshal_spim_init
  50:../../lib/libhalglue/bshal/extlib/u8x8_spi.c **** 		bshal_gpio_write_pin(p_spim->nss_pin, u8x8->display_info->chip_enable_level);
 136              		.loc 1 50 30
 137 00b2 7B69     		ldr	r3, [r7, #20]
 138 00b4 DB79     		ldrb	r3, [r3, #7]	@ zero_extendqisi2
 139              		.loc 1 50 3
 140 00b6 1A46     		mov	r2, r3
 141              		.loc 1 50 45
 142 00b8 FB68     		ldr	r3, [r7, #12]
 143 00ba 1B68     		ldr	r3, [r3]
 144              		.loc 1 50 59
 145 00bc 1B78     		ldrb	r3, [r3]	@ zero_extendqisi2
 146              		.loc 1 50 3
 147 00be 1946     		mov	r1, r3
 148 00c0 1046     		mov	r0, r2
 149 00c2 FFF7FEFF 		bl	bshal_gpio_write_pin
  51:../../lib/libhalglue/bshal/extlib/u8x8_spi.c **** 		u8x8->gpio_and_delay_cb(u8x8, U8X8_MSG_DELAY_NANO, u8x8->display_info->post_chip_enable_wait_ns, 
 150              		.loc 1 51 7
 151 00c6 FB68     		ldr	r3, [r7, #12]
 152 00c8 5C69     		ldr	r4, [r3, #20]
 153              		.loc 1 51 58
 154 00ca FB68     		ldr	r3, [r7, #12]
 155 00cc 1B68     		ldr	r3, [r3]
 156              		.loc 1 51 72
 157 00ce 9A78     		ldrb	r2, [r3, #2]	@ zero_extendqisi2
 158              		.loc 1 51 3
 159 00d0 0023     		movs	r3, #0
 160 00d2 2C21     		movs	r1, #44
 161 00d4 F868     		ldr	r0, [r7, #12]
 162 00d6 A047     		blx	r4
 163              	.LVL0:
  52:../../lib/libhalglue/bshal/extlib/u8x8_spi.c ****       break;
 164              		.loc 1 52 7
 165 00d8 15E0     		b	.L9
 166              	.L5:
  53:../../lib/libhalglue/bshal/extlib/u8x8_spi.c ****     case U8X8_MSG_BYTE_END_TRANSFER:      
  54:../../lib/libhalglue/bshal/extlib/u8x8_spi.c **** 		u8x8->gpio_and_delay_cb(u8x8, U8X8_MSG_DELAY_NANO, u8x8->display_info->pre_chip_disable_wait_ns, 
 167              		.loc 1 54 7
 168 00da FB68     		ldr	r3, [r7, #12]
 169 00dc 5C69     		ldr	r4, [r3, #20]
 170              		.loc 1 54 58
 171 00de FB68     		ldr	r3, [r7, #12]
 172 00e0 1B68     		ldr	r3, [r3]
 173              		.loc 1 54 72
 174 00e2 DA78     		ldrb	r2, [r3, #3]	@ zero_extendqisi2
 175              		.loc 1 54 3
ARM GAS  /tmp/ccNAQRpi.s 			page 5


 176 00e4 0023     		movs	r3, #0
 177 00e6 2C21     		movs	r1, #44
 178 00e8 F868     		ldr	r0, [r7, #12]
 179 00ea A047     		blx	r4
 180              	.LVL1:
  55:../../lib/libhalglue/bshal/extlib/u8x8_spi.c **** 		bshal_gpio_write_pin(p_spim->nss_pin, u8x8->display_info->chip_disable_level);
 181              		.loc 1 55 30
 182 00ec 7B69     		ldr	r3, [r7, #20]
 183 00ee DB79     		ldrb	r3, [r3, #7]	@ zero_extendqisi2
 184              		.loc 1 55 3
 185 00f0 1A46     		mov	r2, r3
 186              		.loc 1 55 45
 187 00f2 FB68     		ldr	r3, [r7, #12]
 188 00f4 1B68     		ldr	r3, [r3]
 189              		.loc 1 55 59
 190 00f6 5B78     		ldrb	r3, [r3, #1]	@ zero_extendqisi2
 191              		.loc 1 55 3
 192 00f8 1946     		mov	r1, r3
 193 00fa 1046     		mov	r0, r2
 194 00fc FFF7FEFF 		bl	bshal_gpio_write_pin
  56:../../lib/libhalglue/bshal/extlib/u8x8_spi.c ****       break;
 195              		.loc 1 56 7
 196 0100 01E0     		b	.L9
 197              	.L2:
  57:../../lib/libhalglue/bshal/extlib/u8x8_spi.c ****     default:
  58:../../lib/libhalglue/bshal/extlib/u8x8_spi.c ****       return 0;
 198              		.loc 1 58 14
 199 0102 0023     		movs	r3, #0
 200 0104 00E0     		b	.L10
 201              	.L9:
 202              	.LBE2:
  59:../../lib/libhalglue/bshal/extlib/u8x8_spi.c ****   }  
  60:../../lib/libhalglue/bshal/extlib/u8x8_spi.c ****   return 1;
 203              		.loc 1 60 10
 204 0106 0123     		movs	r3, #1
 205              	.L10:
  61:../../lib/libhalglue/bshal/extlib/u8x8_spi.c **** }
 206              		.loc 1 61 1
 207 0108 1846     		mov	r0, r3
 208 010a 1C37     		adds	r7, r7, #28
 209              		.cfi_def_cfa_offset 12
 210 010c BD46     		mov	sp, r7
 211              		.cfi_def_cfa_register 13
 212              		@ sp needed
 213 010e 90BD     		pop	{r4, r7, pc}
 214              		.cfi_endproc
 215              	.LFE65:
 217              		.text
 218              	.Letext0:
 219              		.file 2 "/usr/arm-none-eabi/include/machine/_default_types.h"
 220              		.file 3 "/usr/arm-none-eabi/include/sys/_stdint.h"
 221              		.file 4 "/usr/lib/gcc/arm-none-eabi/11.2.0/include/stddef.h"
 222              		.file 5 "../../ext/u8g2/csrc/u8x8.h"
 223              		.file 6 "../../lib/libhalglue/bshal/bshal_spim.h"
ARM GAS  /tmp/ccNAQRpi.s 			page 6


DEFINED SYMBOLS
                            *ABS*:0000000000000000 u8x8_spi.c
     /tmp/ccNAQRpi.s:16     .text.bshal_u8x8_byte_spi:0000000000000000 $t
     /tmp/ccNAQRpi.s:24     .text.bshal_u8x8_byte_spi:0000000000000000 bshal_u8x8_byte_spi
     /tmp/ccNAQRpi.s:59     .text.bshal_u8x8_byte_spi:0000000000000028 $d
     /tmp/ccNAQRpi.s:72     .text.bshal_u8x8_byte_spi:000000000000005c $t
                           .group:0000000000000000 wm4.0.1098e563ef56396ca346ad6c5e97276e
                           .group:0000000000000000 wm4._newlib_version.h.4.bfdf54b0af045d4a71376ae00f63a22c
                           .group:0000000000000000 wm4.features.h.33.318b64d71e0957639cfb30f1db1f7ec8
                           .group:0000000000000000 wm4._default_types.h.15.247e5cd201eca3442cbf5404108c4935
                           .group:0000000000000000 wm4._intsup.h.10.48bafbb683905c4daa4565a85aeeb264
                           .group:0000000000000000 wm4._stdint.h.10.c24fa3af3bc1706662bb5593a907e841
                           .group:0000000000000000 wm4.stdint.h.23.d53047a68f4a85177f80b422d52785ed
                           .group:0000000000000000 wm4.stm32f1xx.h.39.e8c98c5ce2cd95856eed179966374e12
                           .group:0000000000000000 wm4.stm32f103xb.h.38.ec967d5ad9d3269cb0788eebda048e38
                           .group:0000000000000000 wm4.cmsis_version.h.32.4d5822004c01a829a975260e854b5f8e
                           .group:0000000000000000 wm4.core_cm3.h.66.fc46cac19810db8f98d67da7ef88f42c
                           .group:0000000000000000 wm4.cmsis_gcc.h.26.4f5798e999d5690b80e6ded3ecc94b37
                           .group:0000000000000000 wm4.core_cm3.h.127.f4474120f1a7524deb56f9d74ff175da
                           .group:0000000000000000 wm4.stm32f103xb.h.573.10249aa7473ca93be896fed94046a725
                           .group:0000000000000000 wm4.stm32f1xx.h.162.96b09079a093c34dbd7f0b85cbd0ddee
                           .group:0000000000000000 wm4.stm32f1xx_hal_conf.h.24.fb218a6cd2ee35d840b3eac0f5fb4119
                           .group:0000000000000000 wm4.stm32_hal_legacy.h.23.91ba5b544a4c2be2620a1e7ff0049e10
                           .group:0000000000000000 wm4.stddef.h.39.144cf5ddcd53cbfdac30259dc1a6c87f
                           .group:0000000000000000 wm4.stm32f1xx_hal_def.h.57.18d01ce1aa74e9fb44dbf16f821a574a
                           .group:0000000000000000 wm4.stm32f1xx_hal_rcc.h.95.21591bbc513aaa813c0b8640c3b32517
                           .group:0000000000000000 wm4.stm32f1xx_hal_rcc_ex.h.22.8763f99bc1e3e2dcf0febe9161d81b37
                           .group:0000000000000000 wm4.stm32f1xx_hal_rcc.h.1202.f8e5f9e0cf4eef7840facf5396029056
                           .group:0000000000000000 wm4.stm32f1xx_hal_gpio.h.22.fa638d688dcc57ca806fe6a7831b0d04
                           .group:0000000000000000 wm4.stm32f1xx_hal_gpio_ex.h.22.51a50ef3512cd78017ce666a32d364bf
                           .group:0000000000000000 wm4.stm32f1xx_hal_gpio.h.263.f5ebf2f545ade59412ab9261c8e35dc4
                           .group:0000000000000000 wm4.stm32f1xx_hal_exti.h.22.e26491d042c8079c3ca67eca341af862
                           .group:0000000000000000 wm4.stm32f1xx_hal_dma.h.22.3c14338534886827bf3aeaa2a7f412a1
                           .group:0000000000000000 wm4.stm32f1xx_hal_dma_ex.h.22.001ac4d7f81ccbdcae49bd65c13858c8
                           .group:0000000000000000 wm4.stm32f1xx_hal_dma.h.409.cafcd2cfe701091535636be537c18293
                           .group:0000000000000000 wm4.stm32f1xx_hal_can.h.22.9c5cbafab9070e25b2f93744f73f31d3
                           .group:0000000000000000 wm4.stm32f1xx_hal_cortex.h.22.b5f4174bb6a50d95405567b8f50e0900
                           .group:0000000000000000 wm4.stm32f1xx_hal_adc.h.23.7d9534ac2977bed50266ba8246ab0e90
                           .group:0000000000000000 wm4.stm32f1xx_hal_adc_ex.h.22.3f3261b879b4e7059748d94dd89f7d18
                           .group:0000000000000000 wm4.stm32f1xx_hal_crc.h.22.87a86a55c6bcf304cab68a78bda4e4b0
                           .group:0000000000000000 wm4.stm32f1xx_hal_flash.h.22.5cea9a7210e6315b41724b47b5fdf203
                           .group:0000000000000000 wm4.stm32f1xx_hal_flash_ex.h.22.d4e19c21f2a86fa2f8ec2c2d5f1ab2af
                           .group:0000000000000000 wm4.stm32f1xx_hal_i2c.h.22.ad52786857e2aa8ebdf15f14f11ce081
                           .group:0000000000000000 wm4.stm32f1xx_hal_iwdg.h.22.fb89d7d74008a11634b49f24b2a7251c
                           .group:0000000000000000 wm4.stm32f1xx_hal_pwr.h.22.3438c476faafc3240bf146f143df3fcd
                           .group:0000000000000000 wm4.stm32f1xx_hal_rtc.h.22.2e6c4901b3fecdb0d30ea29b38e42312
                           .group:0000000000000000 wm4.stm32f1xx_hal_rtc_ex.h.22.7132215fff3c2f214804b30db0033252
                           .group:0000000000000000 wm4.stm32f1xx_hal_spi.h.22.b31d455e8b6e1263b36c3848e181fcd3
                           .group:0000000000000000 wm4.stm32f1xx_hal_tim.h.22.a16e206564e97dbace9faae59a0d6008
                           .group:0000000000000000 wm4.stm32f1xx_hal_uart.h.22.5f7992e497faa36aa98f09f7214f4dbb
                           .group:0000000000000000 wm4.stm32f1xx_hal_usart.h.22.2faa5f38db3b50ec6d148ec053db51df
                           .group:0000000000000000 wm4.stm32f1xx_hal_irda.h.22.d5842d01b8e511da8aab9dac5eab084d
                           .group:0000000000000000 wm4.stm32f1xx_hal_smartcard.h.22.910d31efb108bad068ed688d89837f4b
                           .group:0000000000000000 wm4.stm32f1xx_hal_wwdg.h.22.b35f34e70a149b77d65030a8695a70d2
                           .group:0000000000000000 wm4.stm32f1xx_ll_usb.h.22.573a89b5589ed8d93ea72c39c5d12974
                           .group:0000000000000000 wm4.stm32f1xx_hal_pcd.h.161.76733d98d42c8efa1b20a15947173729
                           .group:0000000000000000 wm4.stm32f1xx_hal.h.88.91065c0692bed6019c34f1e9c00589fd
ARM GAS  /tmp/ccNAQRpi.s 			page 7


                           .group:0000000000000000 wm4.u8x8.h.86.cabc7409edfb1837158d17befff7110f
                           .group:0000000000000000 wm4.stdarg.h.31.b55da1089056868966f25de5dbfc7d3c
                           .group:0000000000000000 wm4.newlib.h.8.7cb3972cd43265932d4782d5eb589854
                           .group:0000000000000000 wm4.cdefs.h.49.39045112216f6a021dbdffe3bf5accce
                           .group:0000000000000000 wm4.syslimits.h.34.de5cbd310098bc5895998b6bde577ed2
                           .group:0000000000000000 wm4.limits.h.9.70fb0ada6f71b16202a66baaa6d8ea70
                           .group:0000000000000000 wm4.limits.h.60.56a1ae353e2028a24298ec6463b8b593
                           .group:0000000000000000 wm4.u8x8.h.143.822f477279833be4088a86fb9f81d8c6
                           .group:0000000000000000 wm4.u8g2.h.77.171dd9fbb9bf5ec4dc8a7f60edfc7e1f
                           .group:0000000000000000 wm4.stdbool.h.29.4a1c88fe569adb8d03217dd16982ca34

UNDEFINED SYMBOLS
bshal_spim_transmit
bshal_gpio_write_pin
bshal_spim_init
