ARM GAS  /tmp/ccU5Y5X2.s 			page 1


   1              		.cpu cortex-m3
   2              		.eabi_attribute 20, 1
   3              		.eabi_attribute 21, 1
   4              		.eabi_attribute 23, 3
   5              		.eabi_attribute 24, 1
   6              		.eabi_attribute 25, 1
   7              		.eabi_attribute 26, 1
   8              		.eabi_attribute 30, 6
   9              		.eabi_attribute 34, 1
  10              		.eabi_attribute 18, 4
  11              		.file	"u8x8_i2c.c"
  12              		.text
  13              	.Ltext0:
  14              		.cfi_sections	.debug_frame
  15              		.section	.text.bshal_u8x8_byte_i2c,"ax",%progbits
  16              		.align	1
  17              		.global	bshal_u8x8_byte_i2c
  18              		.arch armv7-m
  19              		.syntax unified
  20              		.thumb
  21              		.thumb_func
  22              		.fpu softvfp
  24              	bshal_u8x8_byte_i2c:
  25              	.LFB65:
  26              		.file 1 "../../lib/libhalglue/bshal/extlib/u8x8_i2c.c"
   1:../../lib/libhalglue/bshal/extlib/u8x8_i2c.c **** 
   2:../../lib/libhalglue/bshal/extlib/u8x8_i2c.c **** 
   3:../../lib/libhalglue/bshal/extlib/u8x8_i2c.c **** #include "u8x8_i2c.h"
   4:../../lib/libhalglue/bshal/extlib/u8x8_i2c.c **** 
   5:../../lib/libhalglue/bshal/extlib/u8x8_i2c.c **** //----------------------------------------------------------------------//
   6:../../lib/libhalglue/bshal/extlib/u8x8_i2c.c **** // https://github.com/olikraus/u8g2/wiki/Porting-to-new-MCU-platform    //
   7:../../lib/libhalglue/bshal/extlib/u8x8_i2c.c **** //----------------------------------------------------------------------//
   8:../../lib/libhalglue/bshal/extlib/u8x8_i2c.c **** 
   9:../../lib/libhalglue/bshal/extlib/u8x8_i2c.c **** 
  10:../../lib/libhalglue/bshal/extlib/u8x8_i2c.c **** 
  11:../../lib/libhalglue/bshal/extlib/u8x8_i2c.c **** #ifndef U8X8_WITH_USER_PTR
  12:../../lib/libhalglue/bshal/extlib/u8x8_i2c.c **** #warning please use U8X8_WITH_USER_PTR
  13:../../lib/libhalglue/bshal/extlib/u8x8_i2c.c **** static bshal_i2cm_instance_t *mp_i2c;
  14:../../lib/libhalglue/bshal/extlib/u8x8_i2c.c **** static u8g2_t *mp_u8g2;
  15:../../lib/libhalglue/bshal/extlib/u8x8_i2c.c **** void bshal_u8x8_i2c_init(u8g2_t *p_u8g2, bshal_i2cm_instance_t *p_i2c) {
  16:../../lib/libhalglue/bshal/extlib/u8x8_i2c.c **** 	mp_u8g2 = p_u8g2;
  17:../../lib/libhalglue/bshal/extlib/u8x8_i2c.c **** 	mp_i2c = p_i2c;
  18:../../lib/libhalglue/bshal/extlib/u8x8_i2c.c **** }
  19:../../lib/libhalglue/bshal/extlib/u8x8_i2c.c **** #endif
  20:../../lib/libhalglue/bshal/extlib/u8x8_i2c.c **** 
  21:../../lib/libhalglue/bshal/extlib/u8x8_i2c.c **** 
  22:../../lib/libhalglue/bshal/extlib/u8x8_i2c.c **** uint8_t bshal_u8x8_byte_i2c(u8x8_t *u8x8, uint8_t msg, uint8_t arg_int,
  23:../../lib/libhalglue/bshal/extlib/u8x8_i2c.c **** 		void *arg_ptr) {
  27              		.loc 1 23 18
  28              		.cfi_startproc
  29              		@ args = 0, pretend = 0, frame = 24
  30              		@ frame_needed = 1, uses_anonymous_args = 0
  31 0000 80B5     		push	{r7, lr}
  32              		.cfi_def_cfa_offset 8
  33              		.cfi_offset 7, -8
  34              		.cfi_offset 14, -4
  35 0002 88B0     		sub	sp, sp, #32
ARM GAS  /tmp/ccU5Y5X2.s 			page 2


  36              		.cfi_def_cfa_offset 40
  37 0004 02AF     		add	r7, sp, #8
  38              		.cfi_def_cfa 7, 32
  39 0006 F860     		str	r0, [r7, #12]
  40 0008 7B60     		str	r3, [r7, #4]
  41 000a 0B46     		mov	r3, r1
  42 000c FB72     		strb	r3, [r7, #11]
  43 000e 1346     		mov	r3, r2
  44 0010 BB72     		strb	r3, [r7, #10]
  24:../../lib/libhalglue/bshal/extlib/u8x8_i2c.c **** 	static uint8_t buffer[32]; /* u8g2/u8x8 will never send more than 32 bytes between START_TRANSFER 
  25:../../lib/libhalglue/bshal/extlib/u8x8_i2c.c **** 	static uint8_t buf_idx;
  26:../../lib/libhalglue/bshal/extlib/u8x8_i2c.c **** 	uint8_t *data;
  27:../../lib/libhalglue/bshal/extlib/u8x8_i2c.c **** 
  28:../../lib/libhalglue/bshal/extlib/u8x8_i2c.c **** #ifdef U8X8_WITH_USER_PTR
  29:../../lib/libhalglue/bshal/extlib/u8x8_i2c.c **** 	bshal_i2cm_instance_t *p_i2cm = u8x8->user_ptr;
  45              		.loc 1 29 25
  46 0012 FB68     		ldr	r3, [r7, #12]
  47 0014 DB6A     		ldr	r3, [r3, #44]
  48 0016 3B61     		str	r3, [r7, #16]
  30:../../lib/libhalglue/bshal/extlib/u8x8_i2c.c **** #else
  31:../../lib/libhalglue/bshal/extlib/u8x8_i2c.c **** 	bshal_i2cm_instance_t *p_i2cm = mp_i2c;
  32:../../lib/libhalglue/bshal/extlib/u8x8_i2c.c **** #endif
  33:../../lib/libhalglue/bshal/extlib/u8x8_i2c.c **** 
  34:../../lib/libhalglue/bshal/extlib/u8x8_i2c.c **** 	switch (msg) {
  49              		.loc 1 34 2
  50 0018 FB7A     		ldrb	r3, [r7, #11]	@ zero_extendqisi2
  51 001a 143B     		subs	r3, r3, #20
  52 001c 0C2B     		cmp	r3, #12
  53 001e 47D8     		bhi	.L2
  54 0020 01A2     		adr	r2, .L4
  55 0022 52F823F0 		ldr	pc, [r2, r3, lsl #2]
  56 0026 00BF     		.p2align 2
  57              	.L4:
  58 0028 B5000000 		.word	.L13+1
  59 002c B1000000 		.word	.L2+1
  60 0030 B1000000 		.word	.L2+1
  61 0034 5D000000 		.word	.L7+1
  62 0038 8D000000 		.word	.L6+1
  63 003c 95000000 		.word	.L5+1
  64 0040 B1000000 		.word	.L2+1
  65 0044 B1000000 		.word	.L2+1
  66 0048 B1000000 		.word	.L2+1
  67 004c B1000000 		.word	.L2+1
  68 0050 B1000000 		.word	.L2+1
  69 0054 B1000000 		.word	.L2+1
  70 0058 B5000000 		.word	.L13+1
  71              		.p2align 1
  72              	.L7:
  35:../../lib/libhalglue/bshal/extlib/u8x8_i2c.c **** 	case U8X8_MSG_BYTE_SEND:
  36:../../lib/libhalglue/bshal/extlib/u8x8_i2c.c **** 		data = (uint8_t*) arg_ptr;
  73              		.loc 1 36 8
  74 005c 7B68     		ldr	r3, [r7, #4]
  75 005e 7B61     		str	r3, [r7, #20]
  37:../../lib/libhalglue/bshal/extlib/u8x8_i2c.c **** 		while (arg_int > 0) {
  76              		.loc 1 37 9
  77 0060 10E0     		b	.L9
  78              	.L10:
ARM GAS  /tmp/ccU5Y5X2.s 			page 3


  38:../../lib/libhalglue/bshal/extlib/u8x8_i2c.c **** 			buffer[buf_idx++] = *data;
  79              		.loc 1 38 18
  80 0062 174B     		ldr	r3, .L14
  81 0064 1B78     		ldrb	r3, [r3]	@ zero_extendqisi2
  82 0066 5A1C     		adds	r2, r3, #1
  83 0068 D1B2     		uxtb	r1, r2
  84 006a 154A     		ldr	r2, .L14
  85 006c 1170     		strb	r1, [r2]
  86 006e 1A46     		mov	r2, r3
  87              		.loc 1 38 24
  88 0070 7B69     		ldr	r3, [r7, #20]
  89 0072 1978     		ldrb	r1, [r3]	@ zero_extendqisi2
  90              		.loc 1 38 22
  91 0074 134B     		ldr	r3, .L14+4
  92 0076 9954     		strb	r1, [r3, r2]
  39:../../lib/libhalglue/bshal/extlib/u8x8_i2c.c **** 			data++;
  93              		.loc 1 39 8
  94 0078 7B69     		ldr	r3, [r7, #20]
  95 007a 0133     		adds	r3, r3, #1
  96 007c 7B61     		str	r3, [r7, #20]
  40:../../lib/libhalglue/bshal/extlib/u8x8_i2c.c **** 			arg_int--;
  97              		.loc 1 40 11
  98 007e BB7A     		ldrb	r3, [r7, #10]	@ zero_extendqisi2
  99 0080 013B     		subs	r3, r3, #1
 100 0082 BB72     		strb	r3, [r7, #10]
 101              	.L9:
  37:../../lib/libhalglue/bshal/extlib/u8x8_i2c.c **** 			buffer[buf_idx++] = *data;
 102              		.loc 1 37 18
 103 0084 BB7A     		ldrb	r3, [r7, #10]	@ zero_extendqisi2
 104 0086 002B     		cmp	r3, #0
 105 0088 EBD1     		bne	.L10
  41:../../lib/libhalglue/bshal/extlib/u8x8_i2c.c **** 		}
  42:../../lib/libhalglue/bshal/extlib/u8x8_i2c.c **** 		break;
 106              		.loc 1 42 3
 107 008a 14E0     		b	.L11
 108              	.L6:
  43:../../lib/libhalglue/bshal/extlib/u8x8_i2c.c **** 	case U8X8_MSG_BYTE_INIT:
  44:../../lib/libhalglue/bshal/extlib/u8x8_i2c.c **** 		/* add your custom code to init i2c subsystem */
  45:../../lib/libhalglue/bshal/extlib/u8x8_i2c.c **** 		// For our use, we expect an already initialised I²C bus being provided
  46:../../lib/libhalglue/bshal/extlib/u8x8_i2c.c **** 		// Why? We assume the I²C bus is being shared, and it's beyond the
  47:../../lib/libhalglue/bshal/extlib/u8x8_i2c.c **** 		// responsibility of the graphics library interfacing  layer
  48:../../lib/libhalglue/bshal/extlib/u8x8_i2c.c **** 		break;
  49:../../lib/libhalglue/bshal/extlib/u8x8_i2c.c **** 	case U8X8_MSG_BYTE_SET_DC:
  50:../../lib/libhalglue/bshal/extlib/u8x8_i2c.c **** 		/* ignored for i2c */
  51:../../lib/libhalglue/bshal/extlib/u8x8_i2c.c **** 		break;
  52:../../lib/libhalglue/bshal/extlib/u8x8_i2c.c **** 	case U8X8_MSG_BYTE_START_TRANSFER:
  53:../../lib/libhalglue/bshal/extlib/u8x8_i2c.c **** 		buf_idx = 0;
 109              		.loc 1 53 11
 110 008c 0C4B     		ldr	r3, .L14
 111 008e 0022     		movs	r2, #0
 112 0090 1A70     		strb	r2, [r3]
  54:../../lib/libhalglue/bshal/extlib/u8x8_i2c.c **** 		break;
 113              		.loc 1 54 3
 114 0092 10E0     		b	.L11
 115              	.L5:
  55:../../lib/libhalglue/bshal/extlib/u8x8_i2c.c **** 	case U8X8_MSG_BYTE_END_TRANSFER:
  56:../../lib/libhalglue/bshal/extlib/u8x8_i2c.c **** 		// u8x8 uses 8 bit addressing
ARM GAS  /tmp/ccU5Y5X2.s 			page 4


  57:../../lib/libhalglue/bshal/extlib/u8x8_i2c.c **** 		// bshal uses 7 bit addressing
  58:../../lib/libhalglue/bshal/extlib/u8x8_i2c.c **** 		bshal_i2cm_send(p_i2cm, u8x8->i2c_address >> 1, buffer,
 116              		.loc 1 58 31
 117 0094 FB68     		ldr	r3, [r7, #12]
 118 0096 93F82430 		ldrb	r3, [r3, #36]	@ zero_extendqisi2
 119              		.loc 1 58 3
 120 009a 5B08     		lsrs	r3, r3, #1
 121 009c D9B2     		uxtb	r1, r3
 122 009e 084B     		ldr	r3, .L14
 123 00a0 1B78     		ldrb	r3, [r3]	@ zero_extendqisi2
 124 00a2 0022     		movs	r2, #0
 125 00a4 0092     		str	r2, [sp]
 126 00a6 074A     		ldr	r2, .L14+4
 127 00a8 3869     		ldr	r0, [r7, #16]
 128 00aa FFF7FEFF 		bl	bshal_i2cm_send
  59:../../lib/libhalglue/bshal/extlib/u8x8_i2c.c **** 				buf_idx, false);
  60:../../lib/libhalglue/bshal/extlib/u8x8_i2c.c **** 		break;
 129              		.loc 1 60 3
 130 00ae 02E0     		b	.L11
 131              	.L2:
  61:../../lib/libhalglue/bshal/extlib/u8x8_i2c.c **** 	default:
  62:../../lib/libhalglue/bshal/extlib/u8x8_i2c.c **** 		return 0;
 132              		.loc 1 62 10
 133 00b0 0023     		movs	r3, #0
 134 00b2 01E0     		b	.L12
 135              	.L13:
  48:../../lib/libhalglue/bshal/extlib/u8x8_i2c.c **** 	case U8X8_MSG_BYTE_SET_DC:
 136              		.loc 1 48 3
 137 00b4 00BF     		nop
 138              	.L11:
  63:../../lib/libhalglue/bshal/extlib/u8x8_i2c.c **** 	}
  64:../../lib/libhalglue/bshal/extlib/u8x8_i2c.c **** 	return 1;
 139              		.loc 1 64 9
 140 00b6 0123     		movs	r3, #1
 141              	.L12:
  65:../../lib/libhalglue/bshal/extlib/u8x8_i2c.c **** }
 142              		.loc 1 65 1
 143 00b8 1846     		mov	r0, r3
 144 00ba 1837     		adds	r7, r7, #24
 145              		.cfi_def_cfa_offset 8
 146 00bc BD46     		mov	sp, r7
 147              		.cfi_def_cfa_register 13
 148              		@ sp needed
 149 00be 80BD     		pop	{r7, pc}
 150              	.L15:
 151              		.align	2
 152              	.L14:
 153 00c0 00000000 		.word	buf_idx.1
 154 00c4 00000000 		.word	buffer.0
 155              		.cfi_endproc
 156              	.LFE65:
 158              		.section	.bss.buf_idx.1,"aw",%nobits
 161              	buf_idx.1:
 162 0000 00       		.space	1
 163              		.section	.bss.buffer.0,"aw",%nobits
 164              		.align	2
 167              	buffer.0:
ARM GAS  /tmp/ccU5Y5X2.s 			page 5


 168 0000 00000000 		.space	32
 168      00000000 
 168      00000000 
 168      00000000 
 168      00000000 
 169              		.text
 170              	.Letext0:
 171              		.file 2 "/usr/arm-none-eabi/include/machine/_default_types.h"
 172              		.file 3 "/usr/arm-none-eabi/include/sys/_stdint.h"
 173              		.file 4 "../../ext/u8g2/csrc/u8x8.h"
 174              		.file 5 "../../lib/libhalglue/bshal/bshal_i2cm.h"
ARM GAS  /tmp/ccU5Y5X2.s 			page 6

